(dp0
S'00322'
p1
(lp2
F21.7
aF21.75
aF21.75
aF21.85
aF21.95
aF22.05
aF21.9
aF22.1
aF22.1
aF21.75
aF21.45
aF21.4
aF21.35
aF20.95
aF20.55
aF20.15
aF19.78
aF19.88
aF20.1
aF20.9
aF21.1
aF20.95
aF20.75
aF20.4
aF20.4
aF20.4
aF20.55
aF20.6
aF20.55
aF20.75
aF20.6
aF20.3
aF19.9
aF18.96
aF18.42
aF18.78
aF19.58
aF19.88
aF19.4
aF19.08
aF18.98
aF18.96
aF18.5
aF18.98
aF19.14
aF19.52
aF19.28
aF19.08
aF19.04
aF18.98
aF18.76
aF18.48
aF18.42
aF18.54
aF18.64
aF19.22
aF19.42
aF18.98
aF18.56
aF18.6
aF18.52
aF18.72
aF18.5
aF18.48
aF18.48
aF18.48
aF18.44
aF18.4
aF18.32
aF18.02
aF17.64
aF18.0
aF17.52
aF17.78
aF17.6
aF17.48
aF17.06
aF17.0
aF16.64
aF16.24
aF16.54
aF16.96
aF17.28
aF17.38
aF17.32
aF17.32
aF17.32
aF17.5
aF17.5
aF17.72
aF17.72
asS'01800'
p3
(lp4
F5.58
aF5.65
aF5.76
aF5.77
aF5.85
aF5.84
aF5.76
aF5.78
aF5.78
aF5.66
aF5.66
aF5.65
aF5.6
aF5.76
aF5.85
aF5.79
aF5.76
aF5.66
aF5.64
aF5.75
aF5.78
aF5.79
aF5.73
aF5.6
aF5.6
aF5.6
aF5.6
aF5.63
aF5.57
aF5.55
aF5.63
aF5.54
aF5.52
aF5.47
aF5.5
aF5.64
aF5.57
aF5.58
aF5.53
aF5.65
aF5.71
aF5.68
aF5.62
aF5.75
aF5.92
aF5.91
aF5.95
aF6.03
aF6.57
aF6.51
aF6.7
aF6.84
aF7.12
aF7.01
aF7.11
aF7.08
aF7.0
aF6.83
aF6.98
aF6.94
aF6.97
aF6.89
aF7.76
aF7.53
aF7.78
aF7.66
aF7.76
aF7.42
aF7.63
aF7.58
aF7.63
aF7.61
aF8.2
aF7.73
aF8.2
aF8.41
aF8.35
aF8.55
aF8.43
aF9.12
aF9.7
aF9.57
aF9.52
aF9.49
aF8.64
aF8.64
aF8.64
aF9.58
aF9.41
aF9.33
aF9.33
asS'00902'
p5
(lp6
F9.12
aF9.32
aF9.16
aF9.18
aF9.24
aF9.37
aF9.41
aF9.33
aF9.33
aF9.22
aF9.43
aF9.47
aF9.41
aF9.19
aF9.22
aF9.1
aF8.86
aF8.86
aF8.88
aF9.01
aF9.02
aF8.77
aF8.57
aF8.48
aF8.48
aF8.48
aF8.55
aF8.58
aF8.75
aF8.81
aF8.77
aF8.3
aF8.46
aF8.9
aF8.76
aF8.53
aF8.82
aF8.69
aF8.65
aF8.83
aF8.85
aF8.84
aF8.87
aF8.81
aF9.11
aF9.35
aF9.52
aF9.47
aF9.52
aF9.38
aF8.92
aF8.92
aF8.94
aF8.91
aF9.04
aF9.08
aF8.97
aF8.75
aF8.79
aF8.65
aF8.56
aF8.64
aF9.0
aF9.05
aF9.12
aF9.02
aF9.09
aF8.98
aF9.07
aF9.06
aF9.21
aF9.49
aF9.64
aF9.6
aF9.56
aF9.55
aF9.71
aF9.83
aF9.61
aF9.85
aF10.0
aF10.34
aF10.76
aF10.56
aF10.44
aF10.44
aF10.44
aF10.92
aF10.28
aF10.48
aF10.48
asS'00941'
p7
(lp8
F95.4
aF96.4
aF95.95
aF98.0
aF101.7
aF100.5
aF100.2
aF101.3
aF101.3
aF98.7
aF100.0
aF99.3
aF98.7
aF94.95
aF95.8
aF94.7
aF96.4
aF94.8
aF95.1
aF94.9
aF94.1
aF92.7
aF92.55
aF89.75
aF89.75
aF89.75
aF92.85
aF91.95
aF92.95
aF91.95
aF94.95
aF92.35
aF93.6
aF92.75
aF92.55
aF91.45
aF91.95
aF92.85
aF91.2
aF91.0
aF88.1
aF90.0
aF88.95
aF91.45
aF93.95
aF94.05
aF96.5
aF96.35
aF96.65
aF95.65
aF97.0
aF96.5
aF96.5
aF94.7
aF95.8
aF95.2
aF96.65
aF94.45
aF95.65
aF93.85
aF93.75
aF94.85
aF96.9
aF96.0
aF95.9
aF94.95
aF95.55
aF92.8
aF93.4
aF91.3
aF94.3
aF95.05
aF93.85
aF91.75
aF91.75
aF91.2
aF90.65
aF88.95
aF87.75
aF87.9
aF89.35
aF90.25
aF91.95
aF91.7
aF91.45
aF91.45
aF91.45
aF92.6
aF90.6
aF90.5
aF90.5
asS'03323'
p9
(lp10
F7.15
aF7.12
aF7.11
aF7.4
aF7.69
aF7.71
aF7.71
aF7.71
aF7.71
aF7.49
aF7.48
aF7.44
aF7.43
aF7.35
aF7.4
aF7.37
aF7.35
aF7.23
aF7.23
aF7.29
aF7.22
aF7.19
aF7.13
aF7.04
aF7.04
aF7.04
aF7.1
aF7.13
aF7.19
aF7.21
aF7.15
aF7.09
aF7.05
aF6.98
aF7.04
aF7.02
aF7.05
aF7.06
aF7.03
aF7.05
aF7.05
aF7.01
aF7.0
aF7.09
aF7.22
aF7.17
aF7.19
aF7.18
aF7.28
aF7.29
aF7.32
aF7.28
aF7.38
aF7.29
aF7.3
aF7.34
aF7.38
aF7.26
aF7.18
aF7.16
aF7.16
aF7.2
aF7.47
aF7.4
aF7.54
aF7.49
aF7.58
aF7.42
aF7.46
aF7.43
aF7.59
aF7.56
aF7.55
aF7.45
aF7.44
aF7.4
aF7.37
aF7.38
aF7.23
aF7.21
aF7.28
aF7.29
aF7.3
aF7.28
aF7.24
aF7.24
aF7.24
aF7.35
aF7.46
aF7.54
aF7.54
asS'01880'
p11
(lp12
F9.84
aF9.91
aF10.0
aF10.3
aF10.24
aF10.32
aF10.12
aF10.14
aF10.14
aF9.86
aF9.66
aF9.4
aF9.24
aF9.25
aF9.26
aF9.2
aF9.24
aF9.17
aF9.1
aF9.08
aF9.06
aF8.77
aF8.63
aF8.73
aF8.73
aF8.73
aF8.72
aF8.71
aF8.87
aF8.77
aF9.15
aF8.92
aF8.78
aF8.7
aF8.74
aF8.62
aF8.58
aF8.56
aF8.65
aF8.63
aF8.58
aF8.56
aF8.48
aF9.32
aF9.68
aF9.78
aF9.87
aF9.77
aF9.76
aF9.87
aF9.71
aF9.75
aF9.79
aF9.82
aF9.85
aF9.83
aF9.84
aF9.87
aF9.82
aF9.6
aF9.52
aF9.45
aF9.43
aF9.23
aF8.87
aF8.88
aF8.81
aF8.6
aF8.8
aF8.72
aF8.68
aF8.74
aF8.55
aF8.49
aF8.52
aF8.5
aF8.22
aF8.12
aF8.28
aF8.4
aF8.56
aF8.5
aF8.62
aF8.58
aF8.61
aF8.61
aF8.61
aF8.88
aF8.73
aF8.72
aF8.72
asS'00005'
p13
(lp14
F83.2
aF83.65
aF83.6
aF83.2
aF83.65
aF83.3
aF83.6
aF82.95
aF82.95
aF82.25
aF82.65
aF82.6
aF82.5
aF82.35
aF82.9
aF82.8
aF84.2
aF83.55
aF82.85
aF82.3
aF82.2
aF82.15
aF80.7
aF79.55
aF79.55
aF79.55
aF78.65
aF79.1
aF79.05
aF79.15
aF79.8
aF78.4
aF78.2
aF78.6
aF78.6
aF77.65
aF77.9
aF77.55
aF77.75
aF78.4
aF78.0
aF77.95
aF78.3
aF78.85
aF79.05
aF78.45
aF78.85
aF78.65
aF78.25
aF77.9
aF78.1
aF77.95
aF78.1
aF78.05
aF78.5
aF78.2
aF77.85
aF77.55
aF77.2
aF77.05
aF76.85
aF76.5
aF77.1
aF77.05
aF77.95
aF77.55
aF77.05
aF76.1
aF76.4
aF76.55
aF77.15
aF77.05
aF77.35
aF76.6
aF76.45
aF75.8
aF75.15
aF74.1
aF72.6
aF72.55
aF72.15
aF73.4
aF74.1
aF74.25
aF74.25
aF74.25
aF74.25
aF74.95
aF74.1
aF74.0
aF74.0
asS'02238'
p15
(lp16
F8.13
aF8.06
aF8.17
aF8.25
aF8.35
aF8.32
aF8.57
aF8.62
aF8.62
aF8.38
aF8.39
aF8.21
aF7.99
aF7.92
aF8.02
aF7.91
aF8.11
aF7.78
aF7.79
aF7.87
aF7.86
aF7.67
aF7.63
aF7.51
aF7.51
aF7.51
aF7.6
aF7.64
aF7.63
aF7.54
aF7.7
aF7.55
aF7.52
aF7.39
aF7.3
aF7.26
aF7.29
aF7.41
aF7.37
aF7.51
aF7.38
aF7.19
aF7.14
aF7.22
aF6.97
aF6.85
aF6.9
aF6.91
aF7.0
aF6.94
aF7.03
aF7.06
aF7.5
aF7.36
aF7.47
aF7.65
aF7.7
aF7.44
aF7.25
aF7.18
aF7.14
aF7.1
aF7.23
aF7.23
aF7.33
aF7.3
aF7.34
aF7.15
aF7.17
aF6.91
aF7.09
aF7.15
aF7.4
aF7.24
aF7.14
aF6.99
aF7.05
aF6.96
aF6.95
aF6.94
aF7.02
aF7.04
aF7.13
aF7.19
aF7.22
aF7.22
aF7.22
aF7.25
aF6.98
aF7.06
aF7.06
asS'00728'
p17
(lp18
F4.66
aF4.79
aF4.79
aF4.95
aF4.97
aF5.16
aF5.03
aF5.17
aF5.17
aF4.99
aF5.04
aF4.97
aF4.95
aF4.71
aF4.76
aF4.79
aF4.81
aF4.71
aF4.79
aF5.04
aF4.86
aF4.94
aF4.86
aF4.76
aF4.76
aF4.76
aF4.78
aF4.7
aF4.69
aF4.68
aF4.7
aF4.57
aF4.67
aF4.66
aF4.69
aF4.6
aF4.64
aF4.78
aF4.73
aF4.81
aF4.69
aF4.69
aF4.65
aF4.91
aF4.89
aF4.85
aF4.94
aF4.86
aF4.95
aF4.87
aF4.85
aF4.82
aF4.86
aF4.89
aF4.94
aF5.04
aF4.96
aF4.78
aF4.7
aF4.71
aF4.72
aF4.73
aF4.92
aF4.89
aF4.87
aF4.68
aF4.7
aF4.55
aF4.56
aF4.47
aF4.71
aF4.67
aF4.68
aF4.58
aF4.52
aF4.48
aF4.4
aF4.39
aF4.31
aF4.42
aF4.45
aF4.46
aF4.57
aF4.6
aF4.57
aF4.57
aF4.57
aF4.62
aF4.5
aF4.54
aF4.54
asS'02333'
p19
(lp20
F32.0
aF32.9
aF32.3
aF32.55
aF33.2
aF33.35
aF33.6
aF33.6
aF33.6
aF32.9
aF32.25
aF31.95
aF31.55
aF31.0
aF31.7
aF31.7
aF32.25
aF32.0
aF31.25
aF31.0
aF31.05
aF31.3
aF30.65
aF30.15
aF30.15
aF30.15
aF29.65
aF30.0
aF30.35
aF30.35
aF31.7
aF32.15
aF32.2
aF31.7
aF31.45
aF30.85
aF30.9
aF31.4
aF31.45
aF32.2
aF32.5
aF30.85
aF31.0
aF32.05
aF33.15
aF33.25
aF34.0
aF33.65
aF36.15
aF36.05
aF35.7
aF36.0
aF36.55
aF37.85
aF38.8
aF37.1
aF36.75
aF35.55
aF35.6
aF35.8
aF35.75
aF35.9
aF37.25
aF37.35
aF38.35
aF37.9
aF39.1
aF38.1
aF38.35
aF37.5
aF38.2
aF40.95
aF41.55
aF40.55
aF40.35
aF39.9
aF40.45
aF40.0
aF39.55
aF38.35
aF39.05
aF39.4
aF40.85
aF42.65
aF42.75
aF42.75
aF42.75
aF44.0
aF42.6
aF44.1
aF44.1
asS'00688'
p21
(lp22
F21.8
aF21.8
aF21.8
aF22.1
aF22.95
aF22.75
aF22.6
aF22.75
aF22.75
aF22.0
aF22.1
aF21.9
aF21.7
aF21.4
aF21.75
aF21.35
aF21.1
aF20.7
aF20.7
aF20.75
aF20.7
aF20.7
aF20.3
aF19.98
aF19.98
aF19.98
aF21.2
aF21.35
aF21.2
aF20.9
aF21.3
aF21.05
aF21.05
aF21.1
aF21.3
aF21.0
aF21.05
aF21.4
aF21.5
aF21.6
aF21.55
aF21.35
aF21.35
aF21.85
aF22.2
aF22.05
aF22.5
aF22.75
aF22.85
aF22.2
aF22.1
aF21.85
aF21.65
aF21.55
aF21.55
aF21.55
aF21.45
aF21.25
aF20.85
aF20.6
aF20.35
aF20.4
aF22.65
aF22.5
aF22.8
aF23.0
aF23.3
aF22.8
aF23.35
aF23.55
aF23.95
aF23.7
aF23.4
aF23.35
aF23.1
aF22.95
aF23.0
aF22.5
aF21.7
aF21.65
aF21.85
aF21.45
aF21.45
aF21.3
aF21.45
aF21.45
aF21.45
aF22.05
aF22.8
aF23.05
aF23.05
asS'01109'
p23
(lp24
F17.84
aF17.74
aF17.76
aF17.68
aF18.42
aF18.7
aF18.7
aF18.8
aF18.8
aF17.9
aF18.12
aF17.98
aF18.0
aF17.66
aF17.86
aF17.36
aF17.3
aF16.76
aF16.7
aF16.8
aF16.76
aF16.72
aF16.42
aF16.0
aF16.0
aF16.0
aF16.8
aF17.22
aF17.0
aF17.02
aF17.54
aF17.42
aF17.4
aF17.82
aF17.94
aF17.6
aF17.74
aF17.86
aF17.9
aF18.0
aF17.98
aF17.68
aF17.6
aF17.74
aF17.94
aF18.1
aF18.44
aF18.74
aF18.62
aF18.32
aF18.16
aF18.02
aF17.28
aF17.3
aF17.34
aF17.12
aF17.3
aF17.16
aF17.02
aF17.06
aF16.78
aF17.38
aF19.18
aF18.9
aF19.38
aF19.12
aF19.6
aF18.66
aF19.34
aF19.62
aF20.0
aF19.86
aF19.7
aF19.9
aF20.0
aF19.66
aF19.9
aF19.44
aF19.22
aF19.18
aF19.3
aF18.88
aF19.36
aF19.44
aF19.52
aF19.52
aF19.52
aF19.96
aF20.45
aF20.45
aF20.45
asS'01044'
p25
(lp26
F81.85
aF82.65
aF83.5
aF82.95
aF83.95
aF82.6
aF82.05
aF82.3
aF82.3
aF81.3
aF81.4
aF81.5
aF80.65
aF81.65
aF81.25
aF80.85
aF79.5
aF78.2
aF78.0
aF79.0
aF78.4
aF77.25
aF76.6
aF76.35
aF76.35
aF76.35
aF77.1
aF77.3
aF77.2
aF76.8
aF77.95
aF77.0
aF78.35
aF77.95
aF78.4
aF78.95
aF79.5
aF79.85
aF79.0
aF80.1
aF80.45
aF79.1
aF77.85
aF76.85
aF78.95
aF79.2
aF81.75
aF81.8
aF80.75
aF80.45
aF80.5
aF79.75
aF79.6
aF79.8
aF79.75
aF82.0
aF82.7
aF82.95
aF83.25
aF83.0
aF82.7
aF82.6
aF83.8
aF84.05
aF84.15
aF83.75
aF84.05
aF82.5
aF82.5
aF81.75
aF81.85
aF81.8
aF82.05
aF80.0
aF79.9
aF79.85
aF79.2
aF79.05
aF80.45
aF79.05
aF79.4
aF79.5
aF79.65
aF79.8
aF79.75
aF79.75
aF79.75
aF80.55
aF80.25
aF81.05
aF81.05
asS'02318'
p27
(lp28
F63.75
aF63.1
aF62.7
aF63.05
aF65.3
aF66.25
aF66.15
aF65.85
aF65.85
aF64.15
aF63.9
aF63.9
aF62.85
aF62.2
aF63.0
aF62.05
aF62.0
aF60.8
aF60.3
aF60.8
aF60.35
aF59.6
aF59.2
aF58.3
aF58.3
aF58.3
aF58.95
aF59.05
aF59.2
aF59.1
aF59.9
aF58.85
aF58.65
aF58.35
aF58.45
aF58.15
aF58.85
aF59.0
aF59.0
aF59.5
aF59.65
aF59.5
aF59.05
aF60.95
aF62.7
aF62.0
aF63.35
aF62.8
aF62.7
aF61.9
aF61.5
aF61.5
aF59.7
aF60.2
aF59.35
aF60.55
aF60.8
aF59.9
aF58.9
aF58.9
aF58.2
aF58.75
aF61.95
aF61.7
aF63.95
aF64.2
aF65.05
aF64.85
aF68.8
aF70.55
aF73.1
aF73.0
aF76.15
aF71.4
aF73.1
aF73.7
aF74.0
aF72.5
aF73.65
aF73.35
aF74.0
aF74.4
aF77.0
aF76.1
aF73.75
aF73.75
aF73.75
aF79.25
aF78.9
aF79.1
aF79.1
asS'00823'
p29
(lp30
F45.5
aF46.0
aF46.5
aF46.15
aF46.1
aF46.75
aF46.9
aF46.9
aF46.9
aF46.3
aF46.2
aF46.35
aF45.2
aF45.15
aF45.2
aF45.0
aF44.4
aF44.8
aF44.95
aF44.55
aF44.3
aF44.5
aF43.7
aF44.75
aF44.75
aF44.75
aF43.95
aF44.4
aF45.45
aF45.05
aF45.65
aF45.95
aF46.2
aF46.25
aF45.9
aF45.85
aF45.85
aF46.0
aF46.0
aF45.95
aF46.4
aF47.2
aF46.45
aF46.35
aF46.35
aF45.85
aF45.55
aF46.3
aF46.0
aF45.6
aF45.85
aF46.05
aF47.25
aF47.0
aF46.9
aF48.2
aF48.75
aF49.5
aF48.5
aF48.0
aF48.8
aF48.5
aF48.75
aF47.9
aF48.95
aF48.7
aF49.4
aF49.2
aF49.45
aF49.65
aF49.75
aF51.2
aF48.9
aF48.6
aF49.0
aF49.2
aF48.7
aF48.7
aF48.15
aF48.1
aF48.15
aF48.0
aF48.85
aF48.55
aF48.8
aF48.8
aF48.8
aF48.5
aF48.45
aF48.55
aF48.55
asS'02338'
p31
(lp32
F31.8
aF31.4
aF31.2
aF31.15
aF32.0
aF31.9
aF30.95
aF31.15
aF31.15
aF30.45
aF29.15
aF29.35
aF29.4
aF29.05
aF28.65
aF28.5
aF28.6
aF28.25
aF28.35
aF28.85
aF28.7
aF28.75
aF28.2
aF28.05
aF28.05
aF28.05
aF27.95
aF27.75
aF28.55
aF28.2
aF28.6
aF28.45
aF27.9
aF28.1
aF27.75
aF27.6
aF27.85
aF27.95
aF28.0
aF28.55
aF28.6
aF28.4
aF28.1
aF28.5
aF29.65
aF29.55
aF29.75
aF29.45
aF30.2
aF29.75
aF29.4
aF29.3
aF29.85
aF29.8
aF29.85
aF30.45
aF30.1
aF29.4
aF29.05
aF28.95
aF28.75
aF28.6
aF29.0
aF29.2
aF29.75
aF29.55
aF29.4
aF29.5
aF30.3
aF30.0
aF30.75
aF30.95
aF31.45
aF32.5
aF32.75
aF32.05
aF31.85
aF31.35
aF31.55
aF31.45
aF31.9
aF32.95
aF33.65
aF33.35
aF33.15
aF33.15
aF33.15
aF33.45
aF32.35
aF32.7
aF32.7
asS'00293'
p33
(lp34
F14.52
aF14.4
aF14.26
aF14.32
aF14.3
aF14.34
aF14.36
aF14.36
aF14.36
aF14.36
aF14.38
aF14.38
aF14.5
aF14.72
aF14.82
aF14.82
aF14.76
aF14.64
aF14.5
aF14.5
aF14.52
aF14.5
aF14.38
aF14.3
aF14.3
aF14.3
aF14.38
aF14.46
aF14.64
aF14.54
aF14.6
aF14.38
aF14.18
aF13.9
aF13.98
aF13.88
aF13.7
aF13.8
aF13.78
aF14.2
aF14.16
aF14.04
aF14.12
aF14.34
aF14.42
aF14.38
aF14.54
aF14.6
aF14.68
aF14.7
aF14.76
aF14.76
aF14.78
aF15.16
aF15.28
aF15.72
aF15.68
aF15.58
aF15.34
aF15.3
aF15.18
aF15.38
aF15.8
aF15.88
aF16.06
aF16.26
aF17.08
aF17.66
aF17.4
aF17.4
aF17.68
aF17.1
aF17.24
aF17.54
aF17.24
aF17.58
aF17.36
aF17.26
aF17.18
aF16.84
aF16.8
aF16.62
aF16.84
aF16.66
aF16.68
aF16.68
aF16.68
aF16.7
aF16.8
aF16.9
aF16.9
asS'01288'
p35
(lp36
F3.57
aF3.58
aF3.57
aF3.54
aF3.66
aF3.68
aF3.69
aF3.68
aF3.68
aF3.6
aF3.58
aF3.59
aF3.59
aF3.56
aF3.6
aF3.58
aF3.58
aF3.55
aF3.53
aF3.54
aF3.53
aF3.52
aF3.46
aF3.44
aF3.44
aF3.44
aF3.45
aF3.49
aF3.51
aF3.48
aF3.51
aF3.45
aF3.45
aF3.44
aF3.46
aF3.44
aF3.44
aF3.46
aF3.46
aF3.5
aF3.53
aF3.52
aF3.5
aF3.56
aF3.58
aF3.57
aF3.6
aF3.59
aF3.58
aF3.55
aF3.54
aF3.53
aF3.53
aF3.58
aF3.56
aF3.6
aF3.61
aF3.56
aF3.5
aF3.49
aF3.47
aF3.46
aF3.53
aF3.52
aF3.6
aF3.59
aF3.68
aF3.6
aF3.65
aF3.64
aF3.69
aF3.82
aF3.89
aF3.73
aF3.75
aF3.71
aF3.7
aF3.67
aF3.63
aF3.7
aF3.7
aF3.73
aF3.8
aF3.83
aF3.8
aF3.8
aF3.8
aF3.92
aF3.89
aF3.92
aF3.92
asS'01066'
p37
(lp38
F7.65
aF7.85
aF7.82
aF7.99
aF8.16
aF8.19
aF7.98
aF8.21
aF8.21
aF8.01
aF7.89
aF7.96
aF7.82
aF7.83
aF8.03
aF8.1
aF8.23
aF7.88
aF7.9
aF7.83
aF7.79
aF7.88
aF7.66
aF7.68
aF7.68
aF7.68
aF7.43
aF7.49
aF7.58
aF7.49
aF7.51
aF7.5
aF7.31
aF7.46
aF7.5
aF7.41
aF7.25
aF7.37
aF7.4
aF7.77
aF7.58
aF7.54
aF7.51
aF7.68
aF7.77
aF7.76
aF7.82
aF7.86
aF7.9
aF7.7
aF7.76
aF7.78
aF7.75
aF7.67
aF7.88
aF7.87
aF8.8
aF8.52
aF8.4
aF8.34
aF7.02
aF6.89
aF6.92
aF6.85
aF6.89
aF6.82
aF6.87
aF6.49
aF6.41
aF6.41
aF6.52
aF6.54
aF6.49
aF6.3
aF6.24
aF6.26
aF6.27
aF6.26
aF6.0
aF5.95
aF5.99
aF6.0
aF6.24
aF6.35
aF6.36
aF6.36
aF6.36
aF6.34
aF6.11
aF6.26
aF6.26
asS'01898'
p39
(lp40
F4.68
aF4.72
aF4.69
aF4.88
aF4.97
aF4.9
aF4.89
aF4.87
aF4.87
aF4.77
aF4.68
aF4.62
aF4.62
aF4.55
aF4.66
aF4.63
aF4.63
aF4.48
aF4.44
aF4.61
aF4.59
aF4.54
aF4.48
aF4.54
aF4.54
aF4.54
aF4.66
aF4.6
aF4.54
aF4.55
aF4.69
aF4.74
aF4.83
aF4.72
aF4.73
aF4.62
aF4.68
aF4.62
aF4.62
aF4.59
aF4.57
aF4.5
aF4.44
aF4.59
aF4.69
aF4.68
aF4.75
aF4.69
aF4.73
aF4.68
aF4.67
aF4.7
aF4.77
aF4.74
aF4.84
aF4.97
aF4.92
aF4.75
aF4.64
aF4.65
aF4.69
aF4.72
aF4.88
aF4.83
aF4.88
aF4.84
aF4.84
aF4.81
aF4.91
aF5.03
aF5.31
aF5.17
aF5.09
aF4.98
aF4.91
aF4.88
aF4.97
aF4.91
aF4.8
aF4.72
aF4.77
aF4.76
aF4.98
aF4.99
aF4.94
aF4.94
aF4.94
aF4.9
aF4.87
aF4.86
aF4.86
asS'00023'
p41
(lp42
F33.4
aF33.0
aF33.05
aF33.1
aF33.45
aF33.45
aF33.35
aF33.4
aF33.4
aF33.2
aF33.0
aF32.95
aF32.75
aF32.55
aF32.8
aF32.55
aF32.5
aF32.3
aF32.45
aF32.5
aF32.2
aF32.3
aF31.4
aF31.45
aF31.45
aF31.45
aF31.5
aF31.75
aF31.65
aF31.45
aF31.55
aF31.1
aF31.55
aF31.15
aF31.5
aF31.05
aF31.1
aF31.1
aF31.1
aF31.5
aF31.45
aF31.45
aF31.15
aF32.0
aF32.1
aF32.0
aF32.4
aF32.1
aF32.35
aF32.35
aF32.05
aF31.9
aF32.3
aF32.1
aF32.15
aF32.15
aF32.5
aF32.7
aF32.55
aF32.4
aF32.2
aF32.05
aF32.35
aF32.4
aF32.9
aF32.3
aF32.5
aF31.5
aF31.5
aF31.2
aF31.1
aF31.1
aF31.05
aF30.7
aF31.0
aF30.6
aF30.35
aF29.9
aF29.5
aF29.45
aF29.65
aF30.15
aF30.4
aF30.35
aF30.65
aF30.65
aF30.65
aF31.35
aF30.9
aF31.25
aF31.25
asS'02601'
p43
(lp44
F29.15
aF29.1
aF28.95
aF28.8
aF30.0
aF30.25
aF29.95
aF30.2
aF30.2
aF29.55
aF29.45
aF29.45
aF28.85
aF28.2
aF28.55
aF28.15
aF28.2
aF27.7
aF27.5
aF27.75
aF27.75
aF27.3
aF27.6
aF27.3
aF27.3
aF27.3
aF27.5
aF27.65
aF27.6
aF27.75
aF27.9
aF27.45
aF27.55
aF27.3
aF27.4
aF27.0
aF27.1
aF27.45
aF27.25
aF27.4
aF27.45
aF27.65
aF27.6
aF28.7
aF29.25
aF28.65
aF29.0
aF28.75
aF28.85
aF28.7
aF28.65
aF28.45
aF28.1
aF28.45
aF28.85
aF29.75
aF29.45
aF28.75
aF28.15
aF28.3
aF28.35
aF28.5
aF30.85
aF30.45
aF32.35
aF32.5
aF32.5
aF31.5
aF33.15
aF32.95
aF35.45
aF35.4
aF36.05
aF33.95
aF33.55
aF32.65
aF32.5
aF33.2
aF34.2
aF34.45
aF35.0
aF34.6
aF35.5
aF35.6
aF34.85
aF34.85
aF34.85
aF39.1
aF39.3
aF39.4
aF39.4
asS'03988'
p45
(lp46
F3.61
aF3.6
aF3.59
aF3.59
aF3.69
aF3.71
aF3.74
aF3.74
aF3.74
aF3.66
aF3.65
aF3.64
aF3.6
aF3.6
aF3.66
aF3.64
aF3.62
aF3.57
aF3.57
aF3.62
aF3.59
aF3.58
aF3.53
aF3.48
aF3.48
aF3.48
aF3.49
aF3.51
aF3.53
aF3.5
aF3.53
aF3.47
aF3.49
aF3.5
aF3.53
aF3.5
aF3.51
aF3.52
aF3.52
aF3.58
aF3.59
aF3.59
aF3.58
aF3.68
aF3.71
aF3.68
aF3.71
aF3.7
aF3.72
aF3.69
aF3.67
aF3.67
aF3.69
aF3.8
aF3.84
aF3.86
aF3.85
aF3.78
aF3.73
aF3.71
aF3.71
aF3.73
aF3.81
aF3.8
aF3.89
aF3.86
aF4.0
aF3.91
aF4.07
aF4.03
aF4.16
aF4.13
aF4.32
aF4.15
aF4.16
aF4.1
aF4.11
aF4.09
aF4.03
aF4.14
aF4.14
aF4.17
aF4.33
aF4.24
aF4.21
aF4.21
aF4.21
aF4.34
aF4.29
aF4.37
aF4.37
asS'00151'
p47
(lp48
F9.84
aF9.61
aF9.81
aF9.76
aF9.91
aF9.85
aF9.8
aF9.8
aF9.8
aF9.75
aF9.68
aF9.65
aF9.47
aF9.51
aF9.51
aF9.51
aF9.52
aF9.66
aF9.7
aF9.95
aF10.18
aF9.98
aF9.69
aF9.68
aF9.68
aF9.68
aF9.62
aF9.66
aF9.71
aF9.87
aF9.97
aF9.83
aF9.83
aF9.69
aF9.72
aF9.5
aF9.52
aF9.5
aF9.52
aF9.68
aF9.83
aF9.73
aF9.61
aF9.77
aF10.12
aF10.2
aF10.58
aF10.3
aF10.06
aF10.2
aF10.28
aF10.14
aF10.2
aF10.26
aF10.16
aF10.2
aF10.28
aF10.22
aF10.2
aF10.2
aF10.2
aF10.22
aF10.28
aF10.2
aF10.28
aF10.26
aF10.18
aF9.96
aF10.18
aF10.26
aF10.2
aF10.28
aF10.26
aF10.2
aF10.1
aF10.16
aF10.02
aF9.97
aF9.72
aF9.66
aF9.79
aF9.88
aF9.97
aF9.97
aF10.06
aF10.06
aF10.06
aF10.2
aF10.12
aF10.22
aF10.22
asS'00700'
p49
(lp50
F127.8
aF126.5
aF126.6
aF125.7
aF129.3
aF129.4
aF128.3
aF126.1
aF126.1
aF122.0
aF122.2
aF122.9
aF123.4
aF121.0
aF124.0
aF122.9
aF125.2
aF121.1
aF118.9
aF118.5
aF117.9
aF116.5
aF115.6
aF115.5
aF115.5
aF115.5
aF116.0
aF119.7
aF119.6
aF118.5
aF117.9
aF115.7
aF114.4
aF113.4
aF114.4
aF113.0
aF112.7
aF114.3
aF115.4
aF119.3
aF119.6
aF119.5
aF118.1
aF120.1
aF121.7
aF121.9
aF123.6
aF123.8
aF122.7
aF124.0
aF123.6
aF123.1
aF125.7
aF127.6
aF129.2
aF129.5
aF131.9
aF129.1
aF125.8
aF124.4
aF125.7
aF124.2
aF125.5
aF124.7
aF125.7
aF125.1
aF124.0
aF120.3
aF119.6
aF117.7
aF118.2
aF118.9
aF118.6
aF115.8
aF115.5
aF113.4
aF113.7
aF111.9
aF108.0
aF105.3
aF111.9
aF115.7
aF113.0
aF112.8
aF112.7
aF112.7
aF112.7
aF113.4
aF113.3
aF112.5
aF112.5
asS'01336'
p51
(lp52
F27.4
aF27.65
aF27.55
aF27.65
aF28.35
aF28.65
aF28.4
aF29.1
aF29.1
aF28.35
aF28.3
aF28.0
aF27.8
aF27.1
aF27.25
aF26.9
aF27.15
aF27.0
aF27.2
aF27.4
aF27.0
aF27.2
aF27.25
aF27.05
aF27.05
aF27.05
aF27.05
aF27.35
aF27.4
aF27.35
aF27.45
aF27.4
aF26.85
aF26.8
aF27.1
aF26.75
aF26.95
aF26.7
aF26.6
aF27.5
aF27.4
aF27.35
aF27.5
aF28.1
aF28.65
aF28.7
aF29.0
aF28.85
aF28.8
aF28.75
aF28.4
aF28.4
aF29.15
aF29.45
aF29.85
aF32.2
aF31.75
aF30.95
aF30.35
aF29.85
aF30.3
aF30.65
aF33.25
aF32.35
aF35.1
aF35.2
aF35.15
aF33.75
aF35.85
aF35.35
aF36.3
aF36.05
aF37.5
aF33.6
aF33.85
aF33.2
aF34.15
aF34.05
aF34.55
aF34.0
aF34.2
aF34.55
aF35.75
aF36.55
aF35.2
aF35.2
aF35.2
aF39.1
aF38.85
aF39.15
aF39.15
asS'06030'
p53
(lp54
F18.3
aF18.4
aF18.76
aF18.98
aF19.46
aF19.72
aF19.74
aF19.76
aF19.76
aF19.2
aF19.16
aF19.1
aF18.9
aF18.44
aF18.44
aF18.24
aF18.24
aF17.78
aF17.54
aF18.54
aF18.38
aF18.72
aF18.3
aF17.9
aF17.9
aF17.9
aF18.18
aF18.64
aF18.8
aF18.72
aF18.8
aF18.14
aF17.98
aF17.82
aF18.24
aF18.08
aF18.16
aF18.58
aF18.62
aF18.78
aF18.4
aF18.3
aF17.8
aF18.22
aF18.78
aF18.68
aF19.34
aF19.14
aF19.26
aF19.12
aF19.0
aF19.52
aF19.72
aF20.15
aF20.85
aF20.5
aF20.2
aF19.5
aF19.2
aF18.9
aF19.44
aF20.15
aF21.8
aF22.05
aF22.55
aF22.65
aF22.75
aF22.1
aF23.7
aF23.9
aF26.65
aF28.15
aF31.75
aF29.35
aF29.2
aF27.15
aF28.3
aF28.8
aF30.7
aF30.1
aF28.7
aF28.8
aF27.9
aF28.25
aF27.75
aF27.75
aF27.75
aF28.65
aF28.9
aF29.2
aF29.2
asS'00267'
p55
(lp56
F14.72
aF15.08
aF14.96
aF15.0
aF15.02
aF15.2
aF14.88
aF14.8
aF14.8
aF14.76
aF14.78
aF14.18
aF13.8
aF13.9
aF13.9
aF13.78
aF13.92
aF13.86
aF13.76
aF13.78
aF13.7
aF13.56
aF13.28
aF12.96
aF12.96
aF12.96
aF12.96
aF13.24
aF13.26
aF13.46
aF13.58
aF13.28
aF13.22
aF13.16
aF13.18
aF13.1
aF13.24
aF13.44
aF13.54
aF13.6
aF13.54
aF13.5
aF13.52
aF13.6
aF13.6
aF13.6
aF13.58
aF13.56
aF13.58
aF13.48
aF13.5
aF13.34
aF13.42
aF13.5
aF13.5
aF13.6
aF13.6
aF13.4
aF13.26
aF13.08
aF12.88
aF12.86
aF13.14
aF13.1
aF13.12
aF13.12
aF13.52
aF13.26
aF13.3
aF13.3
aF13.92
aF14.2
aF14.36
aF13.78
aF13.76
aF13.58
aF13.42
aF13.36
aF13.28
aF13.2
aF13.12
aF13.36
aF13.26
aF13.1
aF13.2
aF13.2
aF13.2
aF13.36
aF13.2
aF13.22
aF13.22
asS'00762'
p57
(lp58
F13.34
aF13.82
aF13.58
aF14.14
aF13.78
aF13.9
aF13.92
aF13.9
aF13.9
aF13.44
aF13.66
aF13.88
aF13.7
aF13.08
aF13.1
aF12.88
aF12.64
aF12.26
aF12.34
aF12.38
aF12.22
aF12.16
aF11.94
aF11.6
aF11.6
aF11.6
aF11.56
aF11.5
aF11.48
aF11.4
aF11.7
aF11.48
aF11.5
aF11.46
aF11.58
aF11.34
aF11.42
aF11.4
aF11.32
aF11.32
aF10.92
aF11.06
aF11.16
aF11.38
aF11.52
aF11.48
aF11.66
aF11.46
aF11.48
aF11.32
aF11.46
aF11.38
aF11.48
aF11.16
aF11.28
aF11.3
aF11.3
aF11.26
aF11.1
aF11.22
aF11.3
aF11.38
aF11.62
aF11.82
aF11.78
aF11.68
aF11.8
aF11.32
aF11.46
aF11.2
aF11.52
aF11.16
aF11.02
aF10.64
aF10.66
aF10.64
aF10.62
aF10.2
aF10.1
aF10.26
aF10.34
aF10.5
aF10.46
aF10.56
aF10.44
aF10.44
aF10.44
aF10.66
aF10.46
aF10.4
aF10.4
asS'03968'
p59
(lp60
F14.82
aF14.82
aF14.86
aF14.7
aF15.04
aF15.06
aF14.96
aF15.0
aF15.0
aF14.58
aF14.56
aF14.48
aF14.28
aF14.14
aF14.26
aF14.22
aF14.2
aF14.06
aF14.0
aF14.08
aF13.86
aF13.68
aF13.42
aF13.28
aF13.28
aF13.28
aF13.46
aF13.56
aF13.66
aF13.46
aF13.6
aF13.38
aF13.38
aF13.32
aF13.42
aF13.4
aF13.34
aF13.4
aF13.36
aF13.6
aF13.78
aF13.8
aF13.8
aF14.0
aF14.1
aF14.14
aF14.36
aF14.36
aF14.52
aF14.4
aF14.32
aF14.38
aF14.56
aF14.7
aF14.78
aF14.92
aF15.04
aF14.84
aF14.5
aF14.54
aF14.52
aF14.52
aF14.98
aF14.88
aF15.28
aF15.4
aF16.06
aF15.62
aF16.06
aF16.1
aF17.0
aF17.28
aF17.5
aF16.28
aF16.92
aF16.82
aF17.12
aF16.8
aF16.54
aF17.18
aF17.28
aF17.4
aF18.74
aF18.6
aF18.44
aF18.44
aF18.44
aF19.88
aF19.14
aF19.46
aF19.46
asS'00016'
p61
(lp62
F117.6
aF117.6
aF117.5
aF117.7
aF119.2
aF118.5
aF118.4
aF118.5
aF118.5
aF117.9
aF118.1
aF117.9
aF117.7
aF118.3
aF117.7
aF118.1
aF117.9
aF116.7
aF116.8
aF116.5
aF116.9
aF116.4
aF112.1
aF110.1
aF110.1
aF110.1
aF108.7
aF111.7
aF112.7
aF111.0
aF113.3
aF111.6
aF113.0
aF113.4
aF115.0
aF113.4
aF113.4
aF111.7
aF113.1
aF114.0
aF114.4
aF114.3
aF113.9
aF114.7
aF115.4
aF115.2
aF115.6
aF115.6
aF115.3
aF114.5
aF114.1
aF113.5
aF114.5
aF115.0
aF115.0
aF115.7
aF116.4
aF115.1
aF112.8
aF112.5
aF112.4
aF112.8
aF113.9
aF114.8
aF114.7
aF114.0
aF113.4
aF112.1
aF113.3
aF112.7
aF112.5
aF114.8
aF114.1
aF112.8
aF113.6
aF113.7
aF113.4
aF112.5
aF110.9
aF110.6
aF111.7
aF113.3
aF115.8
aF116.6
aF117.0
aF117.0
aF117.0
aF117.6
aF118.2
aF118.3
aF118.3
asS'00017'
p63
(lp64
F9.79
aF9.8
aF9.78
aF9.87
aF10.12
aF10.1
aF10.32
aF10.36
aF10.36
aF10.18
aF10.24
aF10.14
aF9.99
aF9.94
aF9.99
aF9.91
aF9.86
aF9.75
aF9.77
aF9.71
aF9.67
aF9.63
aF9.19
aF9.04
aF9.04
aF9.04
aF8.95
aF9.14
aF9.26
aF9.31
aF9.34
aF9.22
aF9.34
aF9.26
aF9.53
aF9.32
aF9.4
aF9.35
aF9.42
aF9.5
aF9.5
aF9.5
aF9.51
aF9.63
aF9.68
aF9.67
aF9.74
aF9.76
aF9.68
aF9.55
aF9.55
aF9.45
aF9.51
aF9.48
aF9.56
aF9.54
aF9.65
aF9.63
aF9.53
aF9.5
aF9.55
aF9.23
aF9.34
aF9.31
aF9.37
aF9.32
aF9.26
aF9.07
aF9.12
aF9.13
aF9.09
aF9.1
aF9.11
aF9.0
aF9.0
aF8.88
aF8.9
aF8.85
aF8.78
aF8.69
aF8.76
aF8.78
aF8.8
aF8.77
aF8.83
aF8.83
aF8.83
aF8.86
aF8.85
aF8.92
aF8.92
asS'02319'
p65
(lp66
F70.9
aF71.9
aF71.8
aF71.0
aF71.0
aF72.1
aF74.1
aF74.7
aF74.7
aF73.7
aF73.0
aF72.9
aF72.9
aF72.7
aF72.3
aF71.6
aF70.2
aF70.0
aF68.7
aF68.7
aF67.8
aF66.6
aF64.2
aF64.0
aF64.0
aF64.0
aF63.9
aF65.3
aF66.2
aF66.1
aF67.2
aF66.3
aF66.2
aF66.4
aF67.1
aF65.3
aF64.8
aF64.9
aF64.9
aF65.1
aF64.7
aF64.0
aF64.1
aF65.4
aF66.4
aF67.0
aF68.5
aF68.4
aF68.0
aF66.7
aF66.0
aF62.9
aF61.8
aF61.9
aF60.8
aF59.6
aF61.2
aF62.2
aF61.8
aF61.2
aF63.0
aF62.4
aF62.1
aF62.5
aF62.6
aF63.2
aF62.9
aF61.0
aF60.6
aF59.5
aF59.5
aF60.5
aF59.7
aF58.0
aF58.0
aF59.3
aF60.5
aF59.3
aF57.6
aF55.2
aF55.9
aF57.8
aF61.9
aF61.7
aF62.6
aF62.6
aF62.6
aF63.6
aF64.1
aF64.0
aF64.0
asS'01359'
p67
(lp68
F3.92
aF3.97
aF3.85
aF3.9
aF3.97
aF3.95
aF3.89
aF3.91
aF3.91
aF3.85
aF3.83
aF3.91
aF3.91
aF3.75
aF3.64
aF3.64
aF3.7
aF3.61
aF3.6
aF3.64
aF3.61
aF3.57
aF3.45
aF3.42
aF3.42
aF3.42
aF3.48
aF3.55
aF3.71
aF3.7
aF3.71
aF3.62
aF3.48
aF3.45
aF3.49
aF3.47
aF3.48
aF3.48
aF3.5
aF3.51
aF3.46
aF3.44
aF3.39
aF3.44
aF3.54
aF3.5
aF3.67
aF3.67
aF3.69
aF3.66
aF3.64
aF3.65
aF3.69
aF3.7
aF3.92
aF3.88
aF3.9
aF3.81
aF3.77
aF3.77
aF3.77
aF3.8
aF4.1
aF4.1
aF4.1
aF4.05
aF4.14
aF3.95
aF4.03
aF4.09
aF4.19
aF4.13
aF4.06
aF3.86
aF3.82
aF3.67
aF3.71
aF3.68
aF3.65
aF3.65
aF3.65
aF3.64
aF3.72
aF3.78
aF3.78
aF3.78
aF3.78
aF3.86
aF3.79
aF3.78
aF3.78
asS'00012'
p69
(lp70
F51.95
aF51.35
aF51.95
aF51.8
aF55.0
aF54.95
aF54.85
aF56.0
aF56.0
aF55.2
aF56.0
aF55.8
aF55.8
aF56.15
aF56.25
aF55.65
aF55.1
aF54.35
aF53.6
aF53.15
aF52.8
aF52.3
aF51.25
aF50.3
aF50.3
aF50.3
aF50.5
aF51.8
aF51.7
aF51.3
aF51.55
aF50.3
aF50.7
aF51.35
aF52.3
aF51.5
aF51.7
aF51.65
aF51.95
aF53.55
aF52.95
aF52.3
aF51.5
aF52.0
aF52.2
aF51.85
aF52.35
aF52.35
aF52.1
aF51.95
aF51.15
aF50.15
aF51.6
aF51.8
aF51.5
aF51.7
aF52.0
aF51.65
aF51.25
aF51.4
aF51.2
aF51.2
aF51.9
aF52.25
aF52.15
aF51.9
aF52.0
aF50.7
aF51.65
aF51.9
aF52.0
aF52.3
aF52.6
aF51.8
aF51.75
aF51.75
aF51.7
aF51.35
aF50.6
aF50.65
aF51.15
aF51.8
aF52.4
aF52.55
aF53.0
aF53.0
aF53.0
aF53.85
aF54.15
aF54.3
aF54.3
asS'00390'
p71
(lp72
F4.01
aF4.01
aF4.12
aF4.19
aF4.27
aF4.31
aF4.28
aF4.28
aF4.28
aF4.22
aF4.21
aF4.28
aF4.28
aF4.36
aF4.33
aF4.25
aF4.2
aF4.1
aF4.12
aF4.22
aF4.19
aF4.18
aF4.18
aF4.12
aF4.12
aF4.12
aF4.1
aF4.11
aF4.13
aF4.17
aF4.23
aF4.18
aF4.17
aF4.09
aF4.11
aF4.29
aF4.25
aF4.26
aF4.25
aF4.27
aF4.37
aF4.35
aF4.34
aF4.63
aF4.72
aF4.84
aF4.78
aF4.83
aF5.04
aF5.01
aF5.13
aF4.85
aF5.07
aF4.99
aF5.14
aF5.13
aF5.12
aF4.96
aF4.99
aF5.04
aF5.06
aF5.29
aF5.57
aF5.53
aF5.68
aF5.56
aF5.62
aF5.42
aF5.5
aF5.5
aF5.55
aF5.55
aF5.85
aF5.64
aF5.76
aF5.74
aF5.95
aF6.04
aF5.98
aF6.03
aF6.16
aF6.27
aF6.42
aF6.09
aF5.98
aF5.98
aF5.98
aF6.42
aF6.5
aF6.38
aF6.38
asS'00011'
p73
(lp74
F131.5
aF130.9
aF130.5
aF131.1
aF132.0
aF132.1
aF131.9
aF131.4
aF131.4
aF131.1
aF131.5
aF130.7
aF130.6
aF130.9
aF130.5
aF129.9
aF129.9
aF129.5
aF128.5
aF128.5
aF128.3
aF128.3
aF125.2
aF124.7
aF124.7
aF124.7
aF125.9
aF126.2
aF127.9
aF127.4
aF128.4
aF126.6
aF128.5
aF128.0
aF128.4
aF127.8
aF128.6
aF128.0
aF128.1
aF129.9
aF129.5
aF129.2
aF128.7
aF130.0
aF130.7
aF130.9
aF131.4
aF130.6
aF131.1
aF130.9
aF131.0
aF130.0
aF130.4
aF130.0
aF130.9
aF130.9
aF131.2
aF131.7
aF130.3
aF129.0
aF129.0
aF128.3
aF128.6
aF129.0
aF129.3
aF128.9
aF129.2
aF126.4
aF127.3
aF126.9
aF128.2
aF128.1
aF127.4
aF126.9
aF127.0
aF127.3
aF127.2
aF126.5
aF125.5
aF125.3
aF125.6
aF127.7
aF128.3
aF127.7
aF129.0
aF129.0
aF129.0
aF129.6
aF129.0
aF129.2
aF129.2
asS'00027'
p75
(lp76
F58.7
aF58.4
aF56.7
aF57.05
aF57.3
aF57.45
aF56.65
aF56.0
aF56.0
aF54.45
aF54.2
aF54.1
aF52.3
aF50.6
aF49.3
aF49.85
aF51.35
aF50.5
aF48.8
aF48.05
aF46.35
aF48.0
aF46.35
aF45.1
aF45.1
aF45.1
aF45.35
aF48.35
aF48.45
aF47.15
aF47.9
aF46.85
aF46.65
aF45.75
aF46.95
aF46.7
aF48.75
aF49.1
aF49.05
aF49.8
aF49.4
aF48.6
aF47.1
aF47.7
aF50.7
aF50.35
aF52.95
aF53.9
aF52.4
aF50.85
aF49.2
aF49.6
aF51.05
aF52.35
aF52.8
aF54.45
aF54.85
aF53.35
aF51.75
aF51.15
aF50.4
aF52.5
aF53.7
aF53.15
aF53.45
aF53.6
aF52.95
aF51.55
aF51.4
aF48.8
aF47.15
aF48.05
aF46.8
aF46.4
aF47.9
aF47.0
aF48.05
aF47.45
aF45.75
aF42.0
aF43.35
aF43.35
aF42.4
aF42.05
aF43.65
aF43.65
aF43.65
aF44.1
aF43.85
aF43.65
aF43.65
asS'00168'
p77
(lp78
F57.25
aF58.85
aF58.6
aF59.25
aF59.15
aF58.8
aF58.7
aF59.2
aF59.2
aF57.4
aF57.7
aF58.1
aF57.15
aF56.9
aF56.95
aF56.6
aF55.75
aF55.65
aF55.4
aF56.6
aF55.9
aF55.95
aF55.2
aF55.3
aF55.3
aF55.3
aF55.95
aF55.75
aF56.1
aF56.35
aF56.8
aF56.6
aF55.5
aF55.2
aF54.85
aF53.1
aF54.9
aF55.7
aF55.95
aF55.75
aF55.7
aF55.4
aF54.45
aF55.95
aF56.75
aF56.85
aF57.3
aF55.05
aF55.6
aF53.9
aF54.2
aF54.05
aF53.85
aF53.6
aF54.05
aF54.9
aF55.35
aF54.2
aF54.3
aF54.15
aF54.0
aF54.0
aF54.95
aF55.55
aF56.15
aF54.9
aF54.45
aF54.1
aF55.0
aF55.7
aF56.05
aF55.6
aF55.5
aF55.0
aF55.1
aF54.0
aF54.85
aF54.75
aF53.55
aF52.4
aF52.5
aF52.25
aF52.5
aF52.45
aF52.5
aF52.5
aF52.5
aF53.0
aF51.95
aF52.6
aF52.6
asS'01988'
p79
(lp80
F7.41
aF7.28
aF7.29
aF7.32
aF7.64
aF7.71
aF7.59
aF7.63
aF7.63
aF7.51
aF7.41
aF7.4
aF7.31
aF7.24
aF7.3
aF7.29
aF7.24
aF7.16
aF7.2
aF7.26
aF7.2
aF7.22
aF7.12
aF7.1
aF7.1
aF7.1
aF7.17
aF7.22
aF7.27
aF7.3
aF7.39
aF7.24
aF7.2
aF7.22
aF7.31
aF7.31
aF7.33
aF7.45
aF7.4
aF7.44
aF7.55
aF7.51
aF7.47
aF7.58
aF7.63
aF7.6
aF7.77
aF7.68
aF7.68
aF7.7
aF7.67
aF7.63
aF7.94
aF7.98
aF7.99
aF8.04
aF8.05
aF7.88
aF7.68
aF7.66
aF7.67
aF7.67
aF7.97
aF7.8
aF8.19
aF8.13
aF8.52
aF8.25
aF8.71
aF9.13
aF9.17
aF9.24
aF9.61
aF8.99
aF9.24
aF9.06
aF9.0
aF8.75
aF8.85
aF9.26
aF9.17
aF9.18
aF9.71
aF9.71
aF9.53
aF9.53
aF9.53
aF10.1
aF10.08
aF10.2
aF10.2
asS'01398'
p81
(lp82
F5.14
aF5.14
aF5.09
aF5.05
aF5.28
aF5.3
aF5.33
aF5.32
aF5.32
aF5.19
aF5.17
aF5.16
aF5.13
aF5.09
aF5.19
aF5.14
aF5.12
aF5.05
aF5.03
aF5.09
aF5.02
aF4.98
aF4.91
aF4.84
aF4.84
aF4.84
aF4.87
aF4.91
aF4.96
aF4.93
aF4.97
aF4.89
aF4.88
aF4.89
aF4.93
aF4.88
aF4.92
aF4.94
aF4.93
aF4.99
aF5.02
aF4.99
aF4.95
aF5.05
aF5.11
aF5.07
aF5.13
aF5.09
aF5.09
aF5.03
aF4.99
aF5.0
aF5.05
aF5.05
aF5.05
aF5.11
aF5.11
aF5.05
aF4.98
aF4.95
aF4.94
aF4.96
aF5.08
aF5.09
aF5.17
aF5.18
aF5.26
aF5.13
aF5.23
aF5.22
aF5.34
aF5.48
aF5.68
aF5.38
aF5.36
aF5.33
aF5.29
aF5.26
aF5.21
aF5.31
aF5.34
aF5.37
aF5.55
aF5.53
aF5.46
aF5.46
aF5.46
aF5.63
aF5.56
aF5.66
aF5.66
asS'01088'
p83
(lp84
F22.4
aF22.35
aF22.35
aF22.3
aF23.1
aF23.3
aF23.45
aF23.75
aF23.75
aF23.0
aF22.75
aF22.6
aF22.55
aF22.4
aF22.8
aF22.55
aF22.4
aF22.2
aF21.9
aF22.4
aF22.1
aF21.75
aF21.8
aF21.65
aF21.65
aF21.65
aF21.85
aF21.85
aF21.9
aF21.6
aF21.55
aF21.6
aF21.65
aF21.4
aF21.0
aF20.85
aF20.8
aF21.0
aF21.0
aF21.25
aF21.2
aF21.0
aF20.6
aF21.25
aF21.7
aF21.6
aF21.85
aF21.3
aF21.55
aF21.35
aF21.25
aF21.2
aF21.2
aF21.25
aF21.35
aF21.1
aF20.95
aF20.8
aF20.65
aF20.25
aF20.1
aF20.35
aF21.45
aF21.6
aF21.9
aF21.8
aF22.05
aF21.3
aF22.0
aF22.25
aF23.8
aF23.45
aF23.5
aF22.8
aF22.75
aF22.65
aF22.55
aF22.6
aF22.45
aF21.85
aF22.35
aF22.25
aF23.45
aF23.05
aF23.05
aF23.05
aF23.05
aF23.3
aF22.75
aF22.95
aF22.95
asS'00019'
p85
(lp86
F104.0
aF104.3
aF104.9
aF105.0
aF106.6
aF107.1
aF106.7
aF105.8
aF105.8
aF103.8
aF103.5
aF103.6
aF103.6
aF103.7
aF104.0
aF103.0
aF102.7
aF102.8
aF102.7
aF102.4
aF102.9
aF103.9
aF100.7
aF100.0
aF100.0
aF100.0
aF99.55
aF99.9
aF100.4
aF99.75
aF100.2
aF99.75
aF100.5
aF100.0
aF100.3
aF99.5
aF100.7
aF99.5
aF100.6
aF101.8
aF102.7
aF102.1
aF101.6
aF101.1
aF102.1
aF101.7
aF101.7
aF102.3
aF102.9
aF102.0
aF101.6
aF101.8
aF101.5
aF103.0
aF104.1
aF104.2
aF104.7
aF104.8
aF105.0
aF103.7
aF102.6
aF102.9
aF103.7
aF104.2
aF105.6
aF104.3
aF106.6
aF106.5
aF105.6
aF104.1
aF104.5
aF104.4
aF104.2
aF103.7
aF102.9
aF101.9
aF101.6
aF100.0
aF98.75
aF98.5
aF99.0
aF99.7
aF99.95
aF99.2
aF100.0
aF100.0
aF100.0
aF100.7
aF100.5
aF101.0
aF101.0
asS'00836'
p87
(lp88
F23.5
aF23.45
aF23.8
aF23.95
aF24.5
aF24.3
aF24.45
aF24.45
aF24.45
aF23.8
aF23.55
aF24.25
aF23.55
aF23.3
aF23.95
aF23.3
aF22.9
aF22.65
aF22.3
aF22.95
aF22.7
aF22.75
aF21.9
aF20.95
aF20.95
aF20.95
aF21.3
aF22.05
aF22.15
aF21.1
aF21.6
aF20.25
aF20.15
aF20.8
aF20.95
aF20.55
aF20.75
aF20.7
aF20.8
aF21.0
aF20.95
aF20.85
aF21.0
aF21.35
aF21.65
aF22.25
aF22.55
aF22.0
aF22.1
aF21.8
aF21.5
aF20.9
aF21.55
aF21.45
aF21.4
aF21.35
aF21.6
aF21.05
aF21.0
aF20.7
aF20.45
aF20.4
aF21.55
aF22.05
aF22.15
aF22.65
aF22.6
aF22.25
aF21.85
aF20.65
aF21.0
aF21.1
aF20.8
aF20.8
aF20.85
aF20.25
aF20.35
aF20.05
aF19.48
aF19.42
aF19.74
aF20.15
aF20.4
aF20.2
aF19.86
aF19.86
aF19.86
aF19.96
aF19.66
aF20.0
aF20.0
asS'00857'
p89
(lp90
F10.96
aF11.0
aF11.22
aF11.16
aF11.5
aF11.62
aF11.48
aF11.46
aF11.46
aF11.06
aF10.68
aF10.54
aF10.44
aF10.32
aF10.72
aF10.56
aF10.52
aF10.26
aF10.2
aF10.4
aF10.4
aF10.32
aF10.1
aF9.95
aF9.95
aF9.95
aF10.0
aF10.02
aF10.08
aF9.88
aF9.93
aF9.68
aF9.57
aF9.5
aF9.32
aF9.29
aF9.38
aF9.4
aF9.36
aF9.64
aF9.6
aF9.58
aF9.46
aF9.57
aF9.84
aF9.65
aF9.71
aF9.56
aF9.6
aF9.36
aF9.31
aF9.18
aF9.21
aF9.01
aF9.05
aF8.83
aF8.68
aF8.63
aF8.54
aF8.47
aF8.54
aF8.7
aF8.99
aF8.77
aF8.76
aF8.7
aF8.41
aF8.04
aF8.19
aF7.94
aF8.5
aF8.64
aF8.52
aF8.24
aF8.16
aF8.07
aF8.09
aF8.25
aF8.06
aF8.25
aF8.41
aF8.38
aF8.72
aF8.59
aF8.63
aF8.63
aF8.63
aF8.78
aF8.53
aF8.6
aF8.6
asS'00992'
p91
(lp92
F11.6
aF11.84
aF12.26
aF12.14
aF12.26
aF12.26
aF12.32
aF12.62
aF12.62
aF12.4
aF11.88
aF12.24
aF11.94
aF11.6
aF12.02
aF11.98
aF12.08
aF11.94
aF11.98
aF11.82
aF11.88
aF11.84
aF11.74
aF11.56
aF11.56
aF11.56
aF11.7
aF11.78
aF12.04
aF11.92
aF11.88
aF11.28
aF10.92
aF10.76
aF11.1
aF10.84
aF10.82
aF10.98
aF11.14
aF11.3
aF11.22
aF11.22
aF11.26
aF11.46
aF11.5
aF11.48
aF11.42
aF11.4
aF11.4
aF11.36
aF10.78
aF10.26
aF10.52
aF10.86
aF10.76
aF10.68
aF10.84
aF10.68
aF10.46
aF10.46
aF10.36
aF10.54
aF10.66
aF10.68
aF10.8
aF10.78
aF10.88
aF10.58
aF10.64
aF10.44
aF10.5
aF10.62
aF10.74
aF10.66
aF10.76
aF10.64
aF10.6
aF10.56
aF10.36
aF9.93
aF9.91
aF10.16
aF10.06
aF10.04
aF10.14
aF10.14
aF10.14
aF10.18
aF10.2
aF10.2
aF10.2
asS'01928'
p93
(lp94
F51.35
aF50.5
aF48.9
aF48.8
aF48.45
aF48.7
aF48.2
aF47.85
aF47.85
aF46.75
aF46.5
aF46.65
aF46.0
aF44.2
aF42.5
aF43.1
aF44.65
aF44.6
aF43.25
aF42.55
aF41.3
aF42.45
aF41.5
aF40.5
aF40.5
aF40.5
aF40.1
aF42.95
aF43.25
aF42.15
aF42.65
aF41.9
aF41.65
aF41.35
aF42.25
aF42.55
aF44.5
aF44.9
aF44.8
aF45.2
aF45.3
aF45.15
aF44.05
aF44.7
aF46.95
aF46.9
aF48.3
aF48.4
aF46.8
aF45.25
aF43.15
aF44.25
aF45.1
aF46.2
aF46.1
aF46.9
aF47.7
aF47.35
aF45.85
aF45.25
aF44.8
aF45.5
aF46.45
aF46.55
aF46.9
aF46.9
aF46.45
aF45.5
aF44.25
aF42.0
aF40.7
aF41.1
aF39.85
aF39.85
aF40.3
aF40.1
aF40.95
aF40.8
aF40.45
aF37.95
aF38.75
aF38.55
aF37.55
aF37.35
aF38.5
aF38.5
aF38.5
aF38.9
aF38.4
aF38.15
aF38.15
asS'02883'
p95
(lp96
F21.85
aF22.95
aF22.75
aF22.75
aF23.25
aF22.9
aF22.75
aF22.95
aF22.95
aF22.1
aF21.85
aF21.45
aF21.05
aF20.85
aF21.45
aF21.15
aF20.9
aF20.45
aF20.5
aF21.0
aF20.65
aF20.2
aF20.45
aF20.5
aF20.5
aF20.5
aF20.1
aF20.6
aF20.9
aF20.2
aF20.05
aF19.22
aF19.28
aF19.06
aF18.86
aF17.98
aF18.54
aF18.48
aF18.42
aF18.94
aF18.08
aF18.24
aF17.68
aF17.58
aF18.16
aF16.62
aF16.18
aF15.8
aF15.44
aF15.02
aF15.22
aF14.8
aF15.56
aF15.06
aF15.8
aF15.98
aF15.5
aF15.18
aF14.52
aF14.36
aF14.64
aF15.04
aF15.12
aF15.16
aF14.78
aF14.6
aF13.66
aF12.94
aF12.92
aF12.88
aF13.86
aF13.76
aF13.74
aF13.06
aF13.28
aF12.34
aF12.08
aF12.36
aF12.2
aF12.62
aF13.24
aF13.1
aF13.56
aF13.8
aF13.96
aF13.96
aF13.96
aF14.06
aF13.44
aF13.46
aF13.46
asS'02202'
p97
(lp98
F14.28
aF14.52
aF14.4
aF14.32
aF15.02
aF15.32
aF15.36
aF15.44
aF15.44
aF15.02
aF14.9
aF14.62
aF14.5
aF14.38
aF14.38
aF14.0
aF14.06
aF14.02
aF14.22
aF14.44
aF14.32
aF13.84
aF13.74
aF13.72
aF13.72
aF13.72
aF14.6
aF14.68
aF14.76
aF14.34
aF14.26
aF14.32
aF14.3
aF14.4
aF14.2
aF13.92
aF14.36
aF14.4
aF14.2
aF14.22
aF14.22
aF14.46
aF13.98
aF14.18
aF14.46
aF14.6
aF14.46
aF14.72
aF14.9
aF14.88
aF14.62
aF14.54
aF14.26
aF14.08
aF14.04
aF13.84
aF14.28
aF13.88
aF13.66
aF13.58
aF13.78
aF13.86
aF15.7
aF15.14
aF15.3
aF15.38
aF15.88
aF15.46
aF15.62
aF16.4
aF16.9
aF17.02
aF17.88
aF17.28
aF17.18
aF16.7
aF16.68
aF16.28
aF15.78
aF16.16
aF16.04
aF16.04
aF16.4
aF16.48
aF16.1
aF16.1
aF16.1
aF16.86
aF17.36
aF17.3
aF17.3
asS'00939'
p99
(lp100
F5.77
aF5.76
aF5.71
aF5.68
aF5.91
aF5.92
aF5.95
aF5.95
aF5.95
aF5.81
aF5.79
aF5.78
aF5.72
aF5.7
aF5.81
aF5.73
aF5.71
aF5.63
aF5.62
aF5.7
aF5.64
aF5.63
aF5.52
aF5.44
aF5.44
aF5.44
aF5.46
aF5.51
aF5.54
aF5.49
aF5.58
aF5.49
aF5.5
aF5.49
aF5.56
aF5.51
aF5.51
aF5.53
aF5.53
aF5.61
aF5.63
aF5.59
aF5.55
aF5.69
aF5.75
aF5.72
aF5.78
aF5.74
aF5.76
aF5.72
aF5.7
aF5.65
aF5.69
aF5.72
aF5.72
aF5.77
aF5.78
aF5.68
aF5.63
aF5.59
aF5.58
aF5.6
aF5.72
aF5.73
aF5.84
aF5.8
aF5.88
aF5.73
aF5.87
aF5.85
aF5.99
aF6.17
aF6.41
aF6.06
aF6.11
aF6.07
aF6.0
aF6.02
aF5.98
aF6.07
aF6.06
aF6.12
aF6.33
aF6.22
aF6.17
aF6.17
aF6.17
aF6.37
aF6.28
aF6.37
aF6.37
asS'03328'
p101
(lp102
F5.64
aF5.66
aF5.63
aF5.65
aF5.83
aF5.82
aF5.81
aF5.82
aF5.82
aF5.71
aF5.68
aF5.69
aF5.63
aF5.61
aF5.74
aF5.73
aF5.81
aF5.67
aF5.67
aF5.71
aF5.62
aF5.68
aF5.52
aF5.41
aF5.41
aF5.41
aF5.46
aF5.5
aF5.54
aF5.49
aF5.53
aF5.43
aF5.46
aF5.43
aF5.48
aF5.42
aF5.49
aF5.49
aF5.47
aF5.57
aF5.65
aF5.62
aF5.57
aF5.72
aF5.8
aF5.69
aF5.81
aF5.75
aF5.81
aF5.79
aF5.78
aF5.75
aF5.82
aF5.94
aF5.95
aF5.97
aF5.96
aF5.84
aF5.77
aF5.73
aF5.72
aF5.69
aF5.78
aF5.8
aF5.99
aF6.04
aF6.43
aF6.29
aF6.58
aF6.41
aF6.92
aF6.97
aF7.12
aF6.77
aF6.81
aF6.7
aF6.68
aF6.57
aF6.49
aF6.72
aF6.63
aF6.8
aF7.03
aF7.02
aF6.96
aF6.96
aF6.96
aF7.19
aF7.09
aF7.24
aF7.24
asS'00386'
p103
(lp104
F7.79
aF7.86
aF7.89
aF7.82
aF8.14
aF8.14
aF8.13
aF8.18
aF8.18
aF7.92
aF7.81
aF7.89
aF7.25
aF7.1
aF7.17
aF7.06
aF7.05
aF6.89
aF6.93
aF7.09
aF7.11
aF7.0
aF6.86
aF6.8
aF6.8
aF6.8
aF6.69
aF6.72
aF6.77
aF6.73
aF6.78
aF6.67
aF6.67
aF6.65
aF6.63
aF6.51
aF6.55
aF6.56
aF6.51
aF6.61
aF6.63
aF6.62
aF6.61
aF6.66
aF6.79
aF6.71
aF6.72
aF6.66
aF6.66
aF6.56
aF6.49
aF6.43
aF6.45
aF6.38
aF6.45
aF6.48
aF6.36
aF6.22
aF6.2
aF6.17
aF6.23
aF6.31
aF6.5
aF6.35
aF6.44
aF6.43
aF6.35
aF6.09
aF6.14
aF6.06
aF6.52
aF6.59
aF6.5
aF6.22
aF6.17
aF6.1
aF6.03
aF6.03
aF5.93
aF5.98
aF6.05
aF6.09
aF6.3
aF6.24
aF6.24
aF6.24
aF6.24
aF6.34
aF6.21
aF6.25
aF6.25
asS'02328'
p105
(lp106
F12.37
aF12.37
aF12.57
aF12.95
aF13.6
aF14.05
aF14.3
aF14.1
aF14.1
aF13.47
aF13.55
aF13.6
aF13.34
aF13.18
aF13.45
aF13.51
aF13.59
aF13.41
aF13.59
aF13.47
aF13.43
aF13.59
aF13.93
aF13.24
aF13.24
aF13.24
aF13.8
aF13.95
aF13.76
aF14.1
aF14.18
aF13.97
aF13.64
aF13.51
aF13.53
aF13.28
aF13.24
aF13.1
aF13.03
aF13.03
aF12.97
aF12.97
aF12.93
aF13.34
aF13.6
aF13.39
aF13.68
aF13.6
aF13.64
aF13.3
aF13.1
aF13.26
aF13.56
aF13.7
aF13.84
aF13.92
aF13.9
aF13.68
aF13.56
aF13.5
aF13.62
aF13.58
aF14.28
aF14.5
aF15.12
aF15.18
aF15.62
aF15.34
aF15.44
aF15.38
aF15.86
aF15.62
aF15.84
aF15.16
aF15.0
aF14.94
aF14.82
aF15.02
aF14.98
aF14.6
aF14.98
aF15.04
aF15.76
aF15.54
aF15.36
aF15.36
aF15.36
aF15.84
aF15.22
aF15.08
aF15.08
asS'00135'
p107
(lp108
F12.92
aF12.8
aF12.72
aF12.96
aF13.1
aF13.08
aF12.98
aF13.02
aF13.02
aF12.8
aF12.76
aF12.64
aF12.54
aF12.5
aF12.56
aF12.3
aF12.22
aF12.08
aF11.94
aF11.9
aF11.86
aF11.72
aF11.46
aF11.2
aF11.2
aF11.2
aF11.08
aF11.26
aF11.18
aF11.12
aF11.06
aF10.66
aF10.36
aF10.4
aF10.24
aF10.2
aF10.38
aF10.2
aF10.18
aF10.18
aF10.2
aF10.18
aF10.02
aF10.32
aF10.28
aF10.2
aF10.28
aF10.1
aF10.18
aF10.1
aF10.06
aF9.98
aF9.98
aF9.65
aF9.5
aF9.33
aF9.11
aF9.01
aF8.72
aF8.47
aF8.44
aF8.51
aF8.53
aF8.85
aF8.88
aF8.66
aF8.39
aF7.93
aF8.05
aF7.72
aF8.04
aF7.87
aF7.71
aF7.3
aF7.18
aF6.93
aF7.12
aF7.15
aF6.99
aF6.99
aF7.04
aF7.06
aF7.34
aF7.27
aF7.32
aF7.32
aF7.32
aF7.34
aF7.36
aF7.33
aF7.33
asS'00916'
p109
(lp110
F8.41
aF8.38
aF8.5
aF8.57
aF8.68
aF8.54
aF8.52
aF8.47
aF8.47
aF8.28
aF8.18
aF8.18
aF8.11
aF8.11
aF8.02
aF7.99
aF8.02
aF7.87
aF7.39
aF7.58
aF7.68
aF7.69
aF7.63
aF7.59
aF7.59
aF7.59
aF7.51
aF7.57
aF7.67
aF7.6
aF7.58
aF7.43
aF7.4
aF7.38
aF7.35
aF7.17
aF7.22
aF7.57
aF7.66
aF7.77
aF7.6
aF7.67
aF7.59
aF7.58
aF7.94
aF8.13
aF8.28
aF8.29
aF8.2
aF8.11
aF8.15
aF8.19
aF8.24
aF8.2
aF8.38
aF8.44
aF8.43
aF8.31
aF8.04
aF8.0
aF8.19
aF8.11
aF8.55
aF8.39
aF8.49
aF8.44
aF8.34
aF8.1
aF8.09
aF7.92
aF8.07
aF8.1
aF8.2
aF8.02
aF8.13
aF8.05
aF8.12
aF8.09
aF7.89
aF7.72
aF7.82
aF7.78
aF7.83
aF7.93
aF7.86
aF7.86
aF7.86
aF7.95
aF7.85
aF8.07
aF8.07
asS'00914'
p111
(lp112
F28.05
aF28.0
aF28.1
aF28.1
aF28.55
aF28.45
aF27.85
aF28.1
aF28.1
aF27.75
aF27.8
aF27.85
aF27.85
aF27.2
aF27.05
aF26.7
aF26.65
aF26.35
aF26.3
aF26.2
aF25.95
aF25.7
aF25.1
aF24.8
aF24.8
aF24.8
aF25.05
aF25.25
aF25.35
aF24.85
aF25.35
aF24.85
aF24.6
aF24.55
aF24.75
aF24.6
aF24.5
aF25.0
aF25.15
aF25.25
aF25.15
aF24.55
aF24.75
aF25.15
aF25.6
aF25.55
aF25.4
aF25.2
aF25.55
aF25.85
aF25.3
aF25.55
aF25.05
aF25.05
aF25.15
aF25.2
aF25.35
aF24.85
aF24.6
aF24.4
aF24.15
aF24.5
aF25.8
aF25.45
aF25.9
aF25.6
aF26.25
aF25.8
aF25.85
aF26.6
aF27.45
aF27.15
aF27.35
aF27.05
aF27.35
aF27.1
aF27.35
aF27.1
aF26.9
aF26.55
aF26.55
aF26.55
aF26.55
aF26.55
aF26.55
aF26.55
aF26.55
aF26.55
aF28.15
aF29.05
aF29.05
asS'00066'
p113
(lp114
F30.7
aF30.75
aF31.25
aF30.9
aF31.6
aF31.9
aF31.95
aF31.6
aF31.6
aF31.45
aF31.6
aF31.25
aF30.95
aF31.5
aF32.0
aF31.5
aF31.3
aF31.3
aF31.25
aF31.45
aF31.4
aF31.85
aF30.85
aF30.4
aF30.4
aF30.4
aF31.1
aF31.0
aF31.3
aF31.05
aF30.95
aF30.65
aF30.9
aF30.55
aF30.75
aF30.5
aF30.45
aF30.15
aF30.3
aF31.05
aF31.05
aF30.9
aF30.55
aF31.15
aF31.35
aF31.2
aF31.6
aF31.3
aF31.15
aF30.7
aF30.55
aF30.65
aF30.65
aF30.95
aF31.25
aF31.1
aF31.75
aF31.5
aF31.25
aF31.25
aF31.15
aF31.05
aF31.1
aF31.5
aF31.6
aF31.25
aF31.15
aF30.7
aF31.1
aF30.7
aF30.9
aF31.2
aF31.3
aF31.15
aF31.15
aF31.1
aF31.6
aF31.35
aF31.2
aF31.1
aF30.95
aF31.35
aF31.7
aF31.6
aF31.75
aF31.75
aF31.75
aF31.95
aF32.15
aF31.8
aF31.8
asS'01299'
p115
(lp116
F42.55
aF42.3
aF43.05
aF42.75
aF44.0
aF43.45
aF43.3
aF42.95
aF42.95
aF42.6
aF42.95
aF42.75
aF42.25
aF42.15
aF42.1
aF41.75
aF42.75
aF41.6
aF41.55
aF41.6
aF41.0
aF41.2
aF40.15
aF40.15
aF40.15
aF40.15
aF41.2
aF40.95
aF41.3
aF41.15
aF42.35
aF41.2
aF41.9
aF41.35
aF41.8
aF41.5
aF41.1
aF40.9
aF41.15
aF42.0
aF42.05
aF41.95
aF42.0
aF42.6
aF43.1
aF42.75
aF43.25
aF43.25
aF43.05
aF43.05
aF43.3
aF42.95
aF43.55
aF43.85
aF44.5
aF45.05
aF44.95
aF44.4
aF43.75
aF44.05
aF43.8
aF43.95
aF44.35
aF44.45
aF45.1
aF44.95
aF44.8
aF43.4
aF43.8
aF43.15
aF43.9
aF44.6
aF43.45
aF43.65
aF43.9
aF43.0
aF43.2
aF42.65
aF41.75
aF40.95
aF41.1
aF42.5
aF41.9
aF42.65
aF43.0
aF43.0
aF43.0
aF43.8
aF43.05
aF43.15
aF43.15
asS'00144'
p117
(lp118
F25.75
aF25.7
aF25.6
aF26.05
aF26.35
aF26.35
aF26.2
aF25.9
aF25.9
aF25.75
aF25.65
aF25.35
aF25.1
aF25.05
aF25.5
aF25.15
aF25.1
aF24.7
aF24.5
aF24.5
aF24.35
aF24.5
aF24.2
aF24.0
aF24.0
aF24.0
aF23.7
aF23.95
aF23.65
aF23.4
aF23.7
aF23.8
aF24.05
aF24.0
aF24.2
aF23.75
aF23.55
aF23.85
aF23.7
aF24.1
aF24.25
aF24.15
aF24.0
aF24.25
aF24.3
aF24.35
aF24.5
aF24.8
aF25.35
aF25.45
aF25.35
aF25.2
aF25.35
aF25.4
aF25.15
aF25.45
aF25.55
aF25.5
aF25.7
aF25.9
aF25.55
aF25.65
aF25.8
aF26.1
aF26.7
aF26.6
aF26.55
aF25.5
aF26.05
aF25.85
aF26.7
aF27.4
aF27.5
aF26.55
aF26.55
aF26.45
aF26.7
aF25.9
aF25.7
aF25.85
aF25.5
aF25.55
aF26.05
aF25.5
aF25.6
aF25.6
aF25.6
aF26.4
aF25.8
aF26.1
aF26.1
asS'00883'
p119
(lp120
F15.14
aF15.58
aF15.64
aF15.46
aF15.68
aF15.54
aF15.46
aF15.58
aF15.58
aF15.06
aF14.64
aF14.3
aF14.1
aF14.18
aF14.46
aF14.26
aF14.1
aF14.1
aF13.96
aF14.16
aF13.94
aF13.88
aF13.56
aF13.32
aF13.32
aF13.32
aF13.14
aF13.32
aF13.52
aF13.34
aF13.46
aF12.92
aF12.92
aF12.52
aF12.26
aF12.0
aF12.46
aF12.54
aF12.48
aF12.64
aF12.44
aF12.44
aF12.32
aF12.44
aF12.56
aF12.0
aF12.18
aF12.18
aF12.02
aF11.68
aF11.78
aF11.78
aF11.94
aF11.84
aF11.84
aF11.72
aF11.6
aF11.62
aF11.36
aF11.26
aF11.48
aF11.88
aF12.26
aF12.2
aF12.08
aF12.0
aF11.34
aF10.72
aF10.84
aF10.48
aF10.98
aF10.78
aF10.52
aF10.06
aF10.22
aF10.06
aF10.06
aF10.14
aF9.8
aF9.87
aF10.1
aF10.12
aF10.62
aF10.46
aF10.56
aF10.56
aF10.56
aF10.74
aF10.38
aF10.44
aF10.44
asS'00753'
p121
(lp122
F4.79
aF4.8
aF4.98
aF5.04
aF5.09
aF5.18
aF5.16
aF5.14
aF5.14
aF4.99
aF5.0
aF4.99
aF5.0
aF4.97
aF5.06
aF5.0
aF4.99
aF4.95
aF4.93
aF4.95
aF4.96
aF4.91
aF4.95
aF4.91
aF4.91
aF4.91
aF4.97
aF5.01
aF5.05
aF5.02
aF5.0
aF4.9
aF4.81
aF4.76
aF4.89
aF4.84
aF4.56
aF4.64
aF4.62
aF4.68
aF4.71
aF4.68
aF4.65
aF4.76
aF4.89
aF5.02
aF5.02
aF5.06
aF5.17
aF5.3
aF5.26
aF5.33
aF5.5
aF5.34
aF5.44
aF5.53
aF5.47
aF5.28
aF5.24
aF5.3
aF5.26
aF5.23
aF5.5
aF5.42
aF5.64
aF5.59
aF5.95
aF5.98
aF5.93
aF5.71
aF5.87
aF5.75
aF5.99
aF6.07
aF6.16
aF6.49
aF6.27
aF6.31
aF6.59
aF6.42
aF6.46
aF6.47
aF6.21
aF6.31
aF6.22
aF6.22
aF6.22
aF6.28
aF6.17
aF6.27
aF6.27
asS'06837'
p123
(lp124
F12.22
aF12.38
aF12.4
aF12.62
aF12.96
aF13.08
aF13.04
aF13.12
aF13.12
aF12.86
aF12.78
aF12.78
aF12.66
aF12.42
aF12.48
aF12.48
aF12.52
aF12.06
aF12.02
aF12.46
aF12.36
aF12.42
aF12.18
aF11.98
aF11.98
aF11.98
aF12.1
aF12.22
aF12.32
aF12.28
aF12.5
aF12.22
aF12.12
aF12.0
aF12.2
aF12.3
aF12.42
aF12.56
aF12.72
aF12.72
aF12.7
aF12.56
aF12.18
aF12.48
aF12.76
aF12.88
aF13.3
aF13.24
aF13.24
aF13.24
aF13.26
aF13.58
aF13.92
aF14.24
aF14.88
aF14.62
aF14.4
aF13.52
aF13.2
aF13.26
aF13.58
aF14.32
aF15.92
aF15.86
aF16.16
aF16.22
aF16.5
aF16.18
aF17.24
aF17.02
aF17.06
aF19.18
aF22.25
aF19.6
aF20.0
aF18.32
aF18.68
aF18.94
aF20.15
aF19.82
aF18.42
aF18.6
aF18.24
aF18.74
aF18.22
aF18.22
aF18.22
aF19.1
aF19.24
aF19.52
aF19.52
asS'02388'
p125
(lp126
F26.0
aF26.05
aF26.15
aF26.05
aF26.35
aF26.4
aF26.35
aF26.45
aF26.45
aF26.45
aF25.8
aF25.65
aF25.5
aF25.7
aF25.8
aF25.6
aF25.7
aF25.4
aF25.5
aF25.75
aF25.45
aF25.7
aF24.75
aF24.75
aF24.75
aF24.75
aF24.7
aF24.85
aF24.7
aF24.45
aF24.8
aF24.55
aF25.05
aF25.0
aF24.95
aF24.8
aF25.1
aF25.05
aF25.0
aF25.2
aF25.25
aF25.15
aF25.05
aF25.45
aF25.6
aF25.45
aF25.8
aF25.65
aF25.8
aF25.7
aF25.8
aF25.4
aF25.75
aF26.35
aF27.35
aF27.45
aF27.45
aF27.5
aF27.1
aF26.85
aF26.6
aF26.8
aF27.35
aF27.5
aF27.75
aF27.65
aF27.4
aF26.75
aF27.3
aF27.55
aF27.4
aF27.4
aF26.8
aF26.35
aF26.55
aF26.2
aF26.0
aF25.7
aF25.5
aF25.45
aF25.25
aF24.95
aF25.55
aF25.6
aF25.8
aF25.8
aF25.8
aF26.05
aF25.65
aF25.95
aF25.95
asS'00998'
p127
(lp128
F4.94
aF4.89
aF4.81
aF4.77
aF4.86
aF4.91
aF4.95
aF5.0
aF5.0
aF4.89
aF4.9
aF4.89
aF4.84
aF4.79
aF4.83
aF4.88
aF4.86
aF4.78
aF4.78
aF4.82
aF4.79
aF4.79
aF4.77
aF4.71
aF4.71
aF4.71
aF4.72
aF4.79
aF4.82
aF4.81
aF4.86
aF4.79
aF4.78
aF4.74
aF4.76
aF4.79
aF4.8
aF4.86
aF4.84
aF4.89
aF4.93
aF4.91
aF4.87
aF4.97
aF5.0
aF4.98
aF5.05
aF5.01
aF5.04
aF5.01
aF5.01
aF5.02
aF5.09
aF5.21
aF5.32
aF5.49
aF5.43
aF5.21
aF5.14
aF5.12
aF5.08
aF5.09
aF5.19
aF5.15
aF5.28
aF5.3
aF5.77
aF5.56
aF5.71
aF5.61
aF5.83
aF5.91
aF6.07
aF5.87
aF5.88
aF5.79
aF5.75
aF5.68
aF5.62
aF5.84
aF5.84
aF5.88
aF6.03
aF6.0
aF5.94
aF5.94
aF5.94
aF6.08
aF6.17
aF6.22
aF6.22
asS'00358'
p129
(lp130
F13.92
aF13.7
aF13.64
aF13.82
aF14.18
aF14.16
aF14.22
aF14.26
aF14.26
aF13.88
aF13.86
aF13.82
aF13.6
aF13.4
aF13.76
aF13.66
aF13.74
aF13.32
aF13.22
aF13.34
aF13.12
aF13.0
aF12.8
aF12.78
aF12.78
aF12.78
aF12.66
aF12.94
aF13.1
aF12.84
aF13.0
aF12.74
aF12.8
aF12.86
aF13.04
aF12.84
aF12.94
aF12.84
aF12.78
aF12.84
aF12.9
aF12.82
aF12.68
aF12.88
aF13.34
aF13.56
aF13.78
aF13.78
aF13.9
aF13.66
aF13.5
aF13.6
aF14.02
aF13.66
aF13.72
aF13.88
aF13.9
aF13.4
aF13.32
aF13.14
aF13.12
aF13.2
aF13.92
aF13.86
aF14.08
aF14.0
aF13.92
aF13.12
aF13.16
aF13.42
aF14.0
aF14.18
aF14.12
aF13.42
aF13.56
aF13.48
aF13.32
aF13.58
aF13.32
aF13.1
aF13.24
aF13.4
aF13.64
aF13.42
aF13.34
aF13.34
aF13.34
aF13.32
aF13.2
aF13.3
aF13.3
asS'00083'
p131
(lp132
F13.82
aF13.7
aF13.62
aF13.92
aF14.08
aF14.08
aF14.0
aF13.92
aF13.92
aF13.38
aF13.3
aF13.28
aF13.12
aF12.98
aF13.26
aF12.98
aF12.96
aF12.44
aF12.74
aF12.5
aF12.46
aF12.48
aF11.92
aF12.0
aF12.0
aF12.0
aF12.1
aF12.3
aF12.44
aF12.3
aF12.46
aF12.24
aF12.42
aF12.4
aF12.4
aF12.32
aF12.4
aF12.42
aF12.7
aF12.86
aF12.9
aF12.96
aF12.42
aF12.5
aF12.64
aF12.6
aF12.82
aF12.74
aF12.66
aF12.62
aF12.42
aF12.56
aF12.82
aF12.8
aF12.86
aF12.98
aF13.02
aF12.98
aF12.84
aF12.62
aF12.5
aF12.58
aF12.78
aF12.74
aF12.96
aF12.82
aF12.72
aF12.44
aF12.76
aF12.62
aF12.46
aF12.74
aF12.64
aF12.4
aF12.34
aF12.18
aF12.48
aF12.34
aF12.24
aF12.16
aF12.02
aF12.08
aF12.18
aF12.22
aF12.34
aF12.34
aF12.34
aF12.46
aF12.44
aF12.52
aF12.52
asS'00291'
p133
(lp134
F21.0
aF20.85
aF21.2
aF21.3
aF21.2
aF21.2
aF21.25
aF21.05
aF21.05
aF20.85
aF20.35
aF20.45
aF20.25
aF20.0
aF20.25
aF19.94
aF19.94
aF19.94
aF19.52
aF19.54
aF19.3
aF19.26
aF18.62
aF18.38
aF18.38
aF18.38
aF18.8
aF19.02
aF19.2
aF19.04
aF18.98
aF18.82
aF19.06
aF18.88
aF18.7
aF18.4
aF18.4
aF18.62
aF18.52
aF18.62
aF18.5
aF18.44
aF18.18
aF18.42
aF18.66
aF18.54
aF18.44
aF18.4
aF18.32
aF17.92
aF17.82
aF17.9
aF16.98
aF16.82
aF16.94
aF16.88
aF17.18
aF16.86
aF16.34
aF15.82
aF15.58
aF15.98
aF16.42
aF16.32
aF16.52
aF16.6
aF16.18
aF15.96
aF16.18
aF15.82
aF15.86
aF15.94
aF15.86
aF15.68
aF15.52
aF15.38
aF15.6
aF15.64
aF15.6
aF15.22
aF15.22
aF15.36
aF16.1
aF15.92
aF16.04
aF16.04
aF16.04
aF16.32
aF15.82
aF16.24
aF16.24
asS'00489'
p135
(lp136
F14.16
aF14.36
aF14.56
aF14.36
aF14.54
aF13.92
aF13.9
aF14.06
aF14.06
aF13.86
aF13.38
aF13.5
aF13.32
aF13.18
aF13.48
aF13.42
aF13.22
aF12.94
aF12.86
aF13.14
aF13.14
aF13.06
aF12.92
aF12.76
aF12.76
aF12.76
aF12.72
aF12.84
aF12.8
aF12.6
aF12.82
aF12.44
aF12.52
aF12.52
aF12.3
aF11.9
aF12.02
aF12.18
aF12.14
aF12.36
aF12.28
aF11.96
aF11.56
aF11.76
aF11.82
aF11.78
aF11.98
aF11.5
aF11.28
aF11.2
aF11.02
aF11.16
aF11.24
aF11.08
aF11.18
aF11.2
aF11.24
aF11.04
aF10.98
aF11.12
aF11.08
aF11.12
aF11.62
aF11.46
aF11.74
aF11.7
aF11.8
aF11.54
aF11.5
aF11.12
aF11.36
aF11.7
aF11.72
aF11.46
aF11.38
aF11.12
aF11.22
aF11.2
aF11.08
aF10.96
aF10.94
aF11.0
aF10.86
aF11.02
aF11.02
aF11.02
aF11.02
aF11.22
aF10.96
aF10.98
aF10.98
asS'00004'
p137
(lp138
F60.95
aF60.6
aF60.05
aF60.8
aF62.3
aF62.9
aF62.4
aF62.85
aF62.85
aF61.65
aF62.1
aF61.7
aF60.55
aF59.95
aF60.5
aF60.0
aF59.15
aF58.35
aF57.9
aF57.9
aF57.55
aF57.35
aF55.2
aF55.2
aF55.2
aF55.2
aF55.35
aF56.7
aF56.65
aF56.15
aF56.25
aF55.4
aF55.35
aF55.25
aF55.25
aF54.85
aF55.35
aF55.2
aF55.05
aF56.2
aF56.25
aF55.75
aF55.3
aF56.0
aF56.65
aF56.4
aF57.3
aF56.35
aF55.3
aF55.2
aF55.0
aF55.05
aF55.05
aF55.9
aF55.95
aF55.95
aF55.8
aF55.5
aF54.9
aF55.0
aF55.0
aF55.15
aF56.05
aF56.2
aF56.6
aF56.45
aF55.95
aF54.75
aF54.95
aF54.8
aF55.0
aF55.2
aF55.65
aF55.1
aF55.05
aF54.25
aF55.4
aF55.2
aF54.85
aF54.4
aF54.4
aF54.9
aF55.3
aF55.35
aF55.6
aF55.6
aF55.6
aF56.25
aF56.2
aF56.0
aF56.0
asS'01211'
p139
(lp140
F51.95
aF55.05
aF55.9
aF56.0
aF57.0
aF56.95
aF56.8
aF57.0
aF57.0
aF56.1
aF55.65
aF55.7
aF53.4
aF52.35
aF53.85
aF52.95
aF53.1
aF51.55
aF51.45
aF52.3
aF52.2
aF52.95
aF50.65
aF51.55
aF51.55
aF51.55
aF50.6
aF52.0
aF52.45
aF51.55
aF51.7
aF50.8
aF49.9
aF49.4
aF50.15
aF49.25
aF48.7
aF49.5
aF49.25
aF50.95
aF51.2
aF51.95
aF49.65
aF51.4
aF53.95
aF49.4
aF49.2
aF47.5
aF47.85
aF47.25
aF48.0
aF47.35
aF48.35
aF47.45
aF48.0
aF47.95
aF47.7
aF47.6
aF45.1
aF45.3
aF45.35
aF45.4
aF47.55
aF46.6
aF47.5
aF47.6
aF47.05
aF44.85
aF45.25
aF41.05
aF41.8
aF42.3
aF41.4
aF39.45
aF38.6
aF38.45
aF38.95
aF38.3
aF36.55
aF35.2
aF25.05
aF28.6
aF27.85
aF28.6
aF29.6
aF29.6
aF29.6
aF30.0
aF30.75
aF30.35
aF30.35
asS'00006'
p141
(lp142
F72.4
aF70.6
aF72.6
aF72.15
aF74.1
aF74.0
aF73.7
aF72.4
aF72.4
aF72.2
aF71.8
aF71.0
aF69.75
aF69.45
aF69.85
aF69.1
aF68.7
aF68.45
aF68.75
aF69.9
aF69.5
aF69.85
aF69.1
aF68.65
aF68.65
aF68.65
aF69.4
aF69.4
aF70.3
aF69.95
aF70.8
aF70.0
aF71.25
aF72.1
aF72.45
aF72.15
aF72.0
aF72.25
aF72.35
aF73.0
aF72.7
aF72.6
aF73.3
aF74.4
aF73.9
aF74.4
aF74.85
aF74.15
aF74.45
aF75.35
aF75.15
aF73.75
aF74.95
aF75.9
aF75.45
aF75.95
aF76.05
aF74.85
aF73.45
aF72.85
aF72.55
aF72.2
aF72.1
aF71.55
aF74.3
aF73.25
aF74.05
aF72.35
aF73.25
aF72.7
aF72.75
aF73.0
aF72.9
aF73.5
aF74.5
aF74.8
aF75.45
aF74.65
aF73.1
aF71.65
aF73.4
aF73.75
aF74.05
aF73.55
aF75.0
aF75.0
aF75.0
aF75.4
aF74.55
aF75.25
aF75.25
asS'00001'
p143
(lp144
F102.49
aF100.99
aF101.2
aF101.06
aF103.92
aF102.49
aF101.28
aF100.99
aF100.99
aF99.06
aF99.77
aF99.42
aF98.77
aF98.42
aF98.2
aF97.06
aF97.84
aF96.63
aF96.27
aF96.63
aF96.92
aF96.27
aF92.7
aF91.41
aF91.41
aF91.41
aF91.56
aF93.63
aF94.63
aF93.41
aF94.63
aF93.27
aF93.56
aF93.7
aF94.13
aF92.41
aF93.63
aF92.84
aF92.91
aF95.13
aF95.49
aF95.34
aF94.77
aF95.99
aF97.13
aF97.7
aF98.35
aF98.49
aF96.84
aF95.99
aF96.27
aF96.7
aF99.06
aF98.77
aF98.7
aF99.35
aF100.35
aF99.7
aF98.77
aF98.27
aF98.49
aF98.7
aF102.2
aF102.63
aF102.92
aF102.42
aF101.7
aF98.56
aF99.06
aF98.42
aF98.2
aF99.56
aF98.85
aF97.2
aF96.77
aF94.91
aF94.13
aF92.34
aF91.13
aF89.98
aF91.27
aF92.56
aF92.7
aF92.84
aF92.91
aF92.91
aF92.91
aF94.13
aF93.06
aF93.13
aF93.13
asS'00494'
p145
(lp146
F9.75
aF9.62
aF9.67
aF9.7
aF9.79
aF9.8
aF9.77
aF9.66
aF9.66
aF9.63
aF9.59
aF9.49
aF9.39
aF9.38
aF9.42
aF9.31
aF9.27
aF9.1
aF9.16
aF9.12
aF9.06
aF9.04
aF8.88
aF8.82
aF8.82
aF8.82
aF8.87
aF8.96
aF8.98
aF8.92
aF9.01
aF8.97
aF9.01
aF9.02
aF9.14
aF9.0
aF9.09
aF9.22
aF9.33
aF9.37
aF9.38
aF9.36
aF9.26
aF9.23
aF9.33
aF9.34
aF9.45
aF9.4
aF9.28
aF9.22
aF9.03
aF8.97
aF9.0
aF9.16
aF9.19
aF9.29
aF9.33
aF9.25
aF8.9
aF8.86
aF8.77
aF8.74
aF8.78
aF8.78
aF8.69
aF8.69
aF8.62
aF8.31
aF8.39
aF8.43
aF8.43
aF8.3
aF8.13
aF8.1
aF7.98
aF7.78
aF7.89
aF7.91
aF7.79
aF7.58
aF7.49
aF7.3
aF7.14
aF7.15
aF7.2
aF7.2
aF7.2
aF7.14
aF7.2
aF7.26
aF7.26
asS'00003'
p147
(lp148
F17.84
aF17.58
aF17.66
aF18.0
aF18.2
aF18.22
aF17.98
aF18.0
aF18.0
aF17.76
aF17.76
aF17.72
aF17.6
aF17.52
aF17.7
aF17.52
aF17.32
aF17.28
aF17.28
aF17.58
aF17.5
aF17.46
aF17.02
aF16.84
aF16.84
aF16.84
aF16.88
aF17.02
aF16.96
aF16.98
aF17.56
aF17.52
aF17.72
aF17.88
aF17.94
aF17.88
aF17.7
aF17.78
aF17.86
aF17.98
aF17.96
aF17.96
aF17.82
aF18.0
aF17.96
aF17.98
aF18.1
aF18.18
aF18.12
aF18.16
aF18.22
aF18.2
aF18.34
aF18.3
aF18.42
aF18.5
aF18.74
aF18.72
aF18.36
aF18.22
aF18.34
aF18.74
aF18.74
aF18.82
aF18.82
aF18.54
aF18.38
aF17.78
aF18.12
aF17.86
aF17.76
aF17.94
aF17.76
aF17.86
aF17.7
aF17.76
aF17.6
aF17.46
aF17.32
aF17.14
aF17.1
aF17.26
aF17.4
aF17.26
aF17.58
aF17.58
aF17.58
aF17.9
aF17.78
aF17.76
aF17.76
asS'00002'
p149
(lp150
F66.35
aF65.6
aF66.3
aF66.25
aF67.2
aF66.8
aF66.4
aF65.9
aF65.9
aF65.4
aF65.0
aF64.95
aF64.45
aF64.55
aF64.75
aF64.5
aF63.9
aF63.6
aF63.8
aF63.65
aF63.15
aF63.85
aF62.75
aF62.35
aF62.35
aF62.35
aF62.6
aF62.7
aF64.05
aF63.9
aF64.5
aF63.7
aF64.85
aF64.7
aF65.2
aF65.25
aF64.95
aF65.2
aF65.55
aF65.95
aF65.45
aF65.35
aF65.05
aF66.15
aF66.4
aF66.45
aF66.75
aF66.5
aF66.6
aF67.0
aF67.1
aF67.15
aF67.35
aF67.6
aF67.35
aF68.0
aF67.95
aF67.55
aF66.5
aF66.6
aF66.15
aF66.35
aF66.55
aF66.65
aF67.45
aF66.85
aF67.45
aF66.2
aF66.55
aF65.75
aF65.95
aF66.8
aF66.2
aF66.0
aF65.45
aF65.4
aF65.55
aF64.9
aF64.8
aF64.75
aF64.85
aF65.5
aF66.5
aF66.4
aF67.45
aF67.45
aF67.45
aF67.75
aF67.1
aF67.25
aF67.25
asS'01339'
p151
(lp152
F3.25
aF3.24
aF3.21
aF3.23
aF3.34
aF3.45
aF3.47
aF3.58
aF3.58
aF3.46
aF3.47
aF3.45
aF3.37
aF3.33
aF3.35
aF3.34
aF3.35
aF3.27
aF3.3
aF3.32
aF3.3
aF3.29
aF3.22
aF3.17
aF3.17
aF3.17
aF3.21
aF3.25
aF3.24
aF3.28
aF3.29
aF3.22
aF3.19
aF3.17
aF3.18
aF3.16
aF3.15
aF3.19
aF3.18
aF3.2
aF3.22
aF3.19
aF3.17
aF3.25
aF3.29
aF3.28
aF3.35
aF3.31
aF3.4
aF3.34
aF3.31
aF3.39
aF3.43
aF3.43
aF3.46
aF3.52
aF3.54
aF3.41
aF3.37
aF3.35
aF3.36
aF3.4
aF3.52
aF3.47
aF3.75
aF3.78
aF3.76
aF3.55
aF3.76
aF3.73
aF3.8
aF3.79
aF3.85
aF3.6
aF3.59
aF3.55
aF3.57
aF3.52
aF3.55
aF3.52
aF3.57
aF3.58
aF3.69
aF3.64
aF3.55
aF3.55
aF3.55
aF3.71
aF3.62
aF3.63
aF3.63
asS'02628'
p153
(lp154
F22.5
aF22.25
aF22.15
aF22.25
aF23.05
aF23.7
aF23.55
aF23.95
aF23.95
aF23.3
aF23.05
aF23.1
aF22.65
aF22.5
aF22.85
aF22.65
aF22.6
aF22.25
aF22.15
aF22.2
aF22.15
aF22.0
aF21.85
aF21.55
aF21.55
aF21.55
aF21.65
aF21.75
aF21.85
aF21.85
aF21.9
aF21.55
aF21.55
aF21.45
aF21.5
aF21.25
aF21.4
aF21.55
aF21.6
aF21.9
aF22.0
aF21.85
aF21.8
aF22.35
aF22.85
aF22.65
aF23.2
aF23.0
aF23.0
aF23.05
aF22.95
aF22.75
aF22.8
aF22.95
aF23.0
aF23.3
aF23.1
aF22.75
aF22.65
aF22.7
aF22.8
aF23.0
aF24.95
aF25.0
aF26.8
aF27.0
aF26.95
aF25.65
aF27.15
aF27.0
aF27.95
aF27.95
aF28.45
aF27.05
aF27.15
aF27.0
aF26.75
aF26.65
aF26.65
aF26.95
aF27.6
aF27.8
aF28.3
aF28.4
aF28.05
aF28.05
aF28.05
aF30.5
aF29.8
aF30.45
aF30.45
asS'01099'
p155
(lp156
F26.25
aF27.05
aF27.45
aF27.8
aF28.5
aF28.05
aF28.0
aF28.05
aF28.05
aF28.3
aF29.2
aF29.25
aF28.8
aF27.3
aF28.05
aF28.7
aF29.9
aF28.7
aF28.55
aF29.0
aF28.9
aF28.8
aF28.05
aF28.4
aF28.4
aF28.4
aF28.85
aF27.9
aF28.0
aF27.4
aF27.6
aF26.75
aF26.4
aF26.8
aF28.05
aF28.45
aF28.55
aF29.4
aF29.4
aF29.1
aF29.05
aF28.9
aF28.25
aF30.05
aF29.75
aF30.0
aF30.3
aF29.85
aF31.65
aF32.0
aF32.05
aF32.2
aF32.2
aF31.6
aF32.55
aF33.05
aF34.1
aF32.05
aF31.7
aF31.15
aF31.3
aF30.7
aF28.85
aF28.7
aF29.0
aF28.85
aF28.9
aF27.95
aF28.35
aF27.9
aF27.7
aF27.95
aF28.05
aF27.2
aF27.7
aF28.1
aF27.8
aF27.25
aF26.85
aF26.4
aF27.15
aF27.55
aF27.25
aF27.35
aF27.5
aF27.5
aF27.5
aF27.55
aF27.25
aF27.45
aF27.45
asS'00101'
p157
(lp158
F25.95
aF25.6
aF25.15
aF25.5
aF25.95
aF25.9
aF25.3
aF25.55
aF25.55
aF25.35
aF24.85
aF24.8
aF24.5
aF24.45
aF24.25
aF23.8
aF23.6
aF23.35
aF23.45
aF23.6
aF23.75
aF23.4
aF22.55
aF22.1
aF22.1
aF22.1
aF22.6
aF22.8
aF22.9
aF22.9
aF23.2
aF23.1
aF23.25
aF22.9
aF23.35
aF22.75
aF22.8
aF22.65
aF22.75
aF23.05
aF23.1
aF23.05
aF22.75
aF23.35
aF23.45
aF23.5
aF24.2
aF24.15
aF24.0
aF23.45
aF23.05
aF22.85
aF22.9
aF23.0
aF22.95
aF23.1
aF23.15
aF23.0
aF22.65
aF22.55
aF22.5
aF22.5
aF23.35
aF23.55
aF23.6
aF23.3
aF23.3
aF22.6
aF22.8
aF22.2
aF22.1
aF22.05
aF22.25
aF21.7
aF21.65
aF21.65
aF21.7
aF21.35
aF21.15
aF21.1
aF21.35
aF21.35
aF21.55
aF21.35
aF21.4
aF21.4
aF21.4
aF21.9
aF21.75
aF21.75
aF21.75
asS'00388'
p159
(lp160
F174.8
aF178.1
aF175.1
aF176.6
aF182.9
aF183.1
aF181.7
aF181.6
aF181.6
aF178.5
aF179.8
aF179.2
aF177.3
aF174.0
aF177.5
aF176.5
aF178.5
aF175.2
aF174.8
aF176.3
aF175.8
aF175.3
aF169.7
aF167.1
aF167.1
aF167.1
aF169.9
aF174.8
aF173.4
aF173.4
aF173.8
aF169.9
aF172.1
aF170.9
aF172.5
aF172.2
aF173.7
aF172.3
aF172.9
aF174.9
aF174.7
aF174.4
aF166.2
aF169.2
aF169.4
aF168.5
aF171.9
aF171.1
aF173.1
aF172.6
aF172.2
aF175.6
aF183.6
aF182.2
aF184.5
aF187.1
aF186.4
aF178.1
aF173.9
aF168.0
aF165.8
aF167.1
aF169.1
aF166.6
aF169.8
aF168.7
aF168.9
aF166.1
aF169.6
aF172.3
aF174.8
aF178.0
aF183.9
aF176.9
aF178.6
aF177.1
aF175.1
aF173.4
aF171.1
aF168.7
aF169.6
aF170.7
aF172.0
aF171.5
aF171.3
aF171.3
aF171.3
aF173.0
aF171.3
aF171.7
aF171.7
as.